

Microchip Technology PIC18 LITE Macro Assembler V1.35 build -356382666 
                                                                                               Sun Jan 24 15:59:08 2016

Microchip Technology Omniscient Code Generator v1.35 (Free mode) build 201507080246
     1                           	processor	18F4480
     2                           	fnconf	param0,??,?,0
     3                           	opt	pw 120
     4                           	opt	lm
     5                           	psect	idataBANK0,global,class=CODE,delta=1
     6                           	psect	cinit,global,reloc=2,class=CODE,delta=1
     7                           	psect	bitbssCOMRAM,global,bit,class=COMRAM,space=1,delta=1
     8                           	psect	bssCOMRAM,global,class=COMRAM,space=1,delta=1
     9                           	psect	bssBANK0,global,class=BANK0,space=1,delta=1
    10                           	psect	dataBANK0,global,class=BANK0,space=1,delta=1
    11                           	psect	cstackBANK0,global,class=BANK0,space=1,delta=1
    12                           	psect	cstackCOMRAM,global,class=COMRAM,space=1,delta=1
    13                           	psect	text0,global,reloc=2,class=CODE,delta=1
    14                           	psect	text1,global,reloc=2,class=CODE,delta=1
    15                           	psect	text2,global,reloc=2,class=CODE,delta=1
    16                           	psect	text3,global,reloc=2,class=CODE,delta=1
    17                           	psect	text4,global,reloc=2,class=CODE,delta=1
    18                           	psect	text5,global,reloc=2,class=CODE,delta=1
    19                           	psect	text6,global,reloc=2,class=CODE,delta=1
    20                           	psect	text7,global,reloc=2,class=CODE,delta=1
    21                           	psect	text8,global,reloc=2,class=CODE,delta=1
    22                           	psect	text9,global,reloc=2,class=CODE,delta=1
    23                           	psect	text10,global,reloc=2,class=CODE,delta=1
    24                           	psect	text11,global,reloc=2,class=CODE,delta=1
    25                           	psect	text12,global,reloc=2,class=CODE,delta=1
    26                           	psect	text13,global,reloc=2,class=CODE,delta=1
    27                           	psect	text14,global,reloc=2,class=CODE,delta=1
    28                           	psect	text15,global,reloc=2,class=CODE,delta=1
    29                           	psect	text16,global,reloc=2,class=CODE,delta=1
    30                           	psect	text17,global,reloc=2,class=CODE,delta=1
    31                           	psect	text18,global,reloc=2,class=CODE,delta=1
    32                           	psect	text19,global,reloc=2,class=CODE,delta=1
    33                           	psect	intcodelo,global,reloc=2,class=CODE,delta=1
    34                           	psect	text21,global,reloc=2,class=CODE,delta=1
    35                           	psect	text22,global,reloc=2,class=CODE,delta=1
    36                           	psect	intcode,global,reloc=2,class=CODE,delta=1
    37                           	psect	intcode_body,global,reloc=2,class=CODE,delta=1
    38                           	psect	intsave_regs,global,class=BIGRAM,space=1,delta=1
    39                           	psect	param0,global,class=BANK0,space=1,delta=1
    40                           	psect	temp,global,ovrld,common,class=COMRAM,space=1,delta=1
    41  0000                     
    42                           	psect	idataBANK0
    43  002822                     __pidataBANK0:
    44                           	opt stack 0
    45                           
    46                           ;initializer for _currentSpeed
    47  002822  01                 	db	1
    48                           
    49                           ;initializer for _delay_quartz_frequency_value
    50  002823  08                 	db	8
    51  0000                     _RXB1CON	set	3920
    52  0000                     _RXB1CONbits	set	3920
    53  0000                     _RXB1D0	set	3926
    54  0000                     _RXB1D1	set	3927
    55  0000                     _RXB1D2	set	3928
    56  0000                     _RXB1D3	set	3929
    57  0000                     _RXB1D4	set	3930
    58  0000                     _RXB1D5	set	3931
    59  0000                     _RXB1D6	set	3932
    60  0000                     _RXB1D7	set	3933
    61  0000                     _RXB1DLC	set	3925
    62  0000                     _RXB1DLCbits	set	3925
    63  0000                     _RXB1EIDH	set	3923
    64  0000                     _RXB1EIDL	set	3924
    65  0000                     _RXB1SIDH	set	3921
    66  0000                     _RXB1SIDL	set	3922
    67  0000                     _RXB1SIDLbits	set	3922
    68  0000                     _RXF0EIDH	set	3842
    69  0000                     _RXF0EIDL	set	3843
    70  0000                     _RXF0SIDH	set	3840
    71  0000                     _RXF0SIDL	set	3841
    72  0000                     _RXF0SIDLbits	set	3841
    73  0000                     _RXF1EIDH	set	3846
    74  0000                     _RXF1EIDL	set	3847
    75  0000                     _RXF1SIDH	set	3844
    76  0000                     _RXF1SIDL	set	3845
    77  0000                     _RXF1SIDLbits	set	3845
    78  0000                     _RXF2EIDH	set	3850
    79  0000                     _RXF2EIDL	set	3851
    80  0000                     _RXF2SIDH	set	3848
    81  0000                     _RXF2SIDL	set	3849
    82  0000                     _RXF2SIDLbits	set	3849
    83  0000                     _RXF3EIDH	set	3854
    84  0000                     _RXF3EIDL	set	3855
    85  0000                     _RXF3SIDH	set	3852
    86  0000                     _RXF3SIDL	set	3853
    87  0000                     _RXF3SIDLbits	set	3853
    88  0000                     _RXF4EIDH	set	3858
    89  0000                     _RXF4EIDL	set	3859
    90  0000                     _RXF4SIDH	set	3856
    91  0000                     _RXF4SIDL	set	3857
    92  0000                     _RXF4SIDLbits	set	3857
    93  0000                     _RXF5EIDH	set	3862
    94  0000                     _RXF5EIDL	set	3863
    95  0000                     _RXF5SIDH	set	3860
    96  0000                     _RXF5SIDL	set	3861
    97  0000                     _RXF5SIDLbits	set	3861
    98  0000                     _RXM0EIDH	set	3866
    99  0000                     _RXM0EIDL	set	3867
   100  0000                     _RXM0SIDH	set	3864
   101  0000                     _RXM0SIDL	set	3865
   102  0000                     _RXM0SIDLbits	set	3865
   103  0000                     _RXM1EIDH	set	3870
   104  0000                     _RXM1EIDL	set	3871
   105  0000                     _RXM1SIDH	set	3868
   106  0000                     _RXM1SIDL	set	3869
   107  0000                     _RXM1SIDLbits	set	3869
   108  0000                     _TXB0CONbits	set	3904
   109  0000                     _TXB0D0	set	3910
   110  0000                     _TXB0D1	set	3911
   111  0000                     _TXB0D2	set	3912
   112  0000                     _TXB0D3	set	3913
   113  0000                     _TXB0D4	set	3914
   114  0000                     _TXB0D5	set	3915
   115  0000                     _TXB0D6	set	3916
   116  0000                     _TXB0D7	set	3917
   117  0000                     _TXB0DLC	set	3909
   118  0000                     _TXB0DLCbits	set	3909
   119  0000                     _TXB0EIDH	set	3907
   120  0000                     _TXB0EIDL	set	3908
   121  0000                     _TXB0SIDH	set	3905
   122  0000                     _TXB0SIDL	set	3906
   123  0000                     _TXB0SIDLbits	set	3906
   124  0000                     _TXB1CONbits	set	3888
   125  0000                     _TXB1D0	set	3894
   126  0000                     _TXB1D1	set	3895
   127  0000                     _TXB1D2	set	3896
   128  0000                     _TXB1D3	set	3897
   129  0000                     _TXB1D4	set	3898
   130  0000                     _TXB1D5	set	3899
   131  0000                     _TXB1D6	set	3900
   132  0000                     _TXB1D7	set	3901
   133  0000                     _TXB1DLC	set	3893
   134  0000                     _TXB1DLCbits	set	3893
   135  0000                     _TXB1EIDH	set	3891
   136  0000                     _TXB1EIDL	set	3892
   137  0000                     _TXB1SIDH	set	3889
   138  0000                     _TXB1SIDL	set	3890
   139  0000                     _TXB1SIDLbits	set	3890
   140  0000                     _TXB2CONbits	set	3872
   141  0000                     _TXB2D0	set	3878
   142  0000                     _TXB2D1	set	3879
   143  0000                     _TXB2D2	set	3880
   144  0000                     _TXB2D3	set	3881
   145  0000                     _TXB2D4	set	3882
   146  0000                     _TXB2D5	set	3883
   147  0000                     _TXB2D6	set	3884
   148  0000                     _TXB2D7	set	3885
   149  0000                     _TXB2DLC	set	3877
   150  0000                     _TXB2DLCbits	set	3877
   151  0000                     _TXB2EIDH	set	3875
   152  0000                     _TXB2EIDL	set	3876
   153  0000                     _TXB2SIDH	set	3873
   154  0000                     _TXB2SIDL	set	3874
   155  0000                     _TXB2SIDLbits	set	3874
   156  0000                     _ADCON0bits	set	4034
   157  0000                     _ADCON1bits	set	4033
   158  0000                     _ADCON2bits	set	4032
   159  0000                     _ADRESH	set	4036
   160  0000                     _BRGCON1	set	3952
   161  0000                     _BRGCON2	set	3953
   162  0000                     _BRGCON2bits	set	3953
   163  0000                     _BRGCON3	set	3954
   164  0000                     _BRGCON3bits	set	3954
   165  0000                     _CANCON	set	3951
   166  0000                     _CANCONbits	set	3951
   167  0000                     _CANSTAT	set	3950
   168  0000                     _COMSTATbits	set	3956
   169  0000                     _ECCP1CON	set	4026
   170  0000                     _ECCPR1L	set	4027
   171  0000                     _INTCON2bits	set	4081
   172  0000                     _INTCONbits	set	4082
   173  0000                     _IPR2bits	set	4002
   174  0000                     _IPR3bits	set	4005
   175  0000                     _LATA	set	3977
   176  0000                     _LATB	set	3978
   177  0000                     _LATC	set	3979
   178  0000                     _LATD	set	3980
   179  0000                     _LATE	set	3981
   180  0000                     _PIE1bits	set	3997
   181  0000                     _PIE2bits	set	4000
   182  0000                     _PIE3bits	set	4003
   183  0000                     _PIR1bits	set	3998
   184  0000                     _PIR2bits	set	4001
   185  0000                     _PIR3bits	set	4004
   186  0000                     _PORTAbits	set	3968
   187  0000                     _PORTCbits	set	3970
   188  0000                     _PORTD	set	3971
   189  0000                     _PR2	set	4043
   190  0000                     _RCONbits	set	4048
   191  0000                     _RXB0CON	set	3936
   192  0000                     _RXB0CONbits	set	3936
   193  0000                     _RXB0D0	set	3942
   194  0000                     _RXB0D1	set	3943
   195  0000                     _RXB0D2	set	3944
   196  0000                     _RXB0D3	set	3945
   197  0000                     _RXB0D4	set	3946
   198  0000                     _RXB0D5	set	3947
   199  0000                     _RXB0D6	set	3948
   200  0000                     _RXB0D7	set	3949
   201  0000                     _RXB0DLC	set	3941
   202  0000                     _RXB0DLCbits	set	3941
   203  0000                     _RXB0EIDH	set	3939
   204  0000                     _RXB0EIDL	set	3940
   205  0000                     _RXB0SIDH	set	3937
   206  0000                     _RXB0SIDL	set	3938
   207  0000                     _RXB0SIDLbits	set	3938
   208  0000                     _RXERRCNT	set	3957
   209  0000                     _T2CON	set	4042
   210  0000                     _T2CONbits	set	4042
   211  0000                     _T3CON	set	4017
   212  0000                     _TMR2	set	4044
   213  0000                     _TMR3H	set	4019
   214  0000                     _TMR3L	set	4018
   215  0000                     _TRISA	set	3986
   216  0000                     _TRISB	set	3987
   217  0000                     _TRISC	set	3988
   218  0000                     _TRISD	set	3989
   219  0000                     _TRISDbits	set	3989
   220  0000                     _TRISE	set	3990
   221  0000                     _TXERRCNT	set	3958
   222                           
   223                           ; #config settings
   224  0000                     
   225                           	psect	cinit
   226  0026A8                     __pcinit:
   227                           	opt stack 0
   228  0026A8                     start_initialization:
   229                           	opt stack 0
   230  0026A8                     __initialization:
   231                           	opt stack 0
   232                           
   233                           ; Clear objects allocated to BANK0 (43 bytes)
   234  0026A8  EE00  F091         	lfsr	0,__pbssBANK0
   235  0026AC  0E2B               	movlw	43
   236  0026AE                     clear_0:
   237  0026AE  6AEE               	clrf	postinc0,c
   238  0026B0  06E8               	decf	wreg,f,c
   239  0026B2  E1FD               	bnz	clear_0
   240                           
   241                           ; Clear objects allocated to BITCOMRAM (2 bytes)
   242  0026B4  6A48               	clrf	((__pbitbssCOMRAM/(0+8)+1))& (0+255),c
   243  0026B6  6A47               	clrf	(__pbitbssCOMRAM/(0+8))& (0+255),c
   244                           
   245                           ; Clear objects allocated to COMRAM (41 bytes)
   246  0026B8  EE00  F001         	lfsr	0,__pbssCOMRAM
   247  0026BC  0E29               	movlw	41
   248  0026BE                     clear_1:
   249  0026BE  6AEE               	clrf	postinc0,c
   250  0026C0  06E8               	decf	wreg,f,c
   251  0026C2  E1FD               	bnz	clear_1
   252                           
   253                           ; Initialize objects allocated to BANK0 (2 bytes)
   254                           ; load TBLPTR registers with __pidataBANK0
   255  0026C4  0E22               	movlw	low __pidataBANK0
   256  0026C6  6EF6               	movwf	tblptrl,c
   257  0026C8  0E28               	movlw	high __pidataBANK0
   258  0026CA  6EF7               	movwf	tblptrh,c
   259  0026CC  0E00               	movlw	low (__pidataBANK0 shr (0+16))
   260  0026CE  6EF8               	movwf	tblptru,c
   261  0026D0  0009               	tblrd		*+	;fetch initializer
   262  0026D2  CFF5 F0BC          	movff	tablat,__pdataBANK0
   263  0026D6  0009               	tblrd		*+	;fetch initializer
   264  0026D8  CFF5 F0BD          	movff	tablat,__pdataBANK0+1
   265  0026DC                     end_of_initialization:
   266                           	opt stack 0
   267  0026DC                     __end_of__initialization:
   268                           	opt stack 0
   269  0026DC  9049               	bcf	int$flags,0,c	;clear compiler interrupt flag (level 1)
   270  0026DE  9249               	bcf	int$flags,1,c	;clear compiler interrupt flag (level 2)
   271  0026E0  0E00               	movlw	low (__Lmediumconst shr (0+16))
   272  0026E2  6EF8               	movwf	tblptru,c
   273  0026E4  0100               	movlb	0
   274  0026E6  EFA6  F00C         	goto	_main	;jump to C main() function
   275                           tblptru	equ	0xFF8
   276                           tblptrh	equ	0xFF7
   277                           tblptrl	equ	0xFF6
   278                           tablat	equ	0xFF5
   279                           postinc0	equ	0xFEE
   280                           wreg	equ	0xFE8
   281                           
   282                           	psect	bitbssCOMRAM
   283  000238                     __pbitbssCOMRAM:
   284                           	opt stack 0
   285  000238                     _can_retry:
   286                           	opt stack 0
   287  000238                     	ds	1
   288  000239                     _centralina_abs:
   289                           	opt stack 0
   290  000239                     	ds	1
   291  00023A                     _centralina_comando:
   292                           	opt stack 0
   293  00023A                     	ds	1
   294  00023B                     _centralina_sterzo:
   295                           	opt stack 0
   296  00023B                     	ds	1
   297  00023C                     _message_sent:
   298                           	opt stack 0
   299  00023C                     	ds	1
   300  00023D                     _remote_frame:
   301                           	opt stack 0
   302  00023D                     	ds	1
   303  00023E                     _remote_frame1:
   304                           	opt stack 0
   305  00023E                     	ds	1
   306  00023F                     _request_sent:
   307                           	opt stack 0
   308  00023F                     	ds	1
   309  000240                     _speed_fetched:
   310                           	opt stack 0
   311  000240                     	ds	1
   312                           tblptru	equ	0xFF8
   313                           tblptrh	equ	0xFF7
   314                           tblptrl	equ	0xFF6
   315                           tablat	equ	0xFF5
   316                           postinc0	equ	0xFEE
   317                           wreg	equ	0xFE8
   318                           
   319                           	psect	bssCOMRAM
   320  000001                     __pbssCOMRAM:
   321                           	opt stack 0
   322  000001                     _counter_array:
   323                           	opt stack 0
   324  000001                     	ds	8
   325  000009                     _counter:
   326                           	opt stack 0
   327  000009                     	ds	4
   328  00000D                     _id:
   329                           	opt stack 0
   330  00000D                     	ds	4
   331  000011                     _id1:
   332                           	opt stack 0
   333  000011                     	ds	4
   334  000015                     _timeCounter:
   335                           	opt stack 0
   336  000015                     	ds	4
   337  000019                     _duty_cycle:
   338                           	opt stack 0
   339  000019                     	ds	2
   340  00001B                     _msg:
   341                           	opt stack 0
   342  00001B                     	ds	15
   343                           tblptru	equ	0xFF8
   344                           tblptrh	equ	0xFF7
   345                           tblptrl	equ	0xFF6
   346                           tablat	equ	0xFF5
   347                           postinc0	equ	0xFEE
   348                           wreg	equ	0xFE8
   349                           
   350                           	psect	bssBANK0
   351  000091                     __pbssBANK0:
   352                           	opt stack 0
   353  000091                     _currentSpeed_array:
   354                           	opt stack 0
   355  000091                     	ds	8
   356  000099                     _previousTimeCounter:
   357                           	opt stack 0
   358  000099                     	ds	4
   359  00009D                     _previousTimeCounter1:
   360                           	opt stack 0
   361  00009D                     	ds	4
   362  0000A1                     _previousTimeCounter2:
   363                           	opt stack 0
   364  0000A1                     	ds	4
   365  0000A5                     _clock_counter_reference:
   366                           	opt stack 0
   367  0000A5                     	ds	2
   368  0000A7                     _correzione:
   369                           	opt stack 0
   370  0000A7                     	ds	2
   371  0000A9                     _dir:
   372                           	opt stack 0
   373  0000A9                     	ds	2
   374  0000AB                     _errore:
   375                           	opt stack 0
   376  0000AB                     	ds	2
   377  0000AD                     _vBatt:
   378                           	opt stack 0
   379  0000AD                     	ds	2
   380  0000AF                     _duty_set:
   381                           	opt stack 0
   382  0000AF                     	ds	1
   383  0000B0                     _left_speed:
   384                           	opt stack 0
   385  0000B0                     	ds	1
   386  0000B1                     _previousPwm:
   387                           	opt stack 0
   388  0000B1                     	ds	1
   389  0000B2                     _requestSpeed:
   390                           	opt stack 0
   391  0000B2                     	ds	1
   392  0000B3                     _right_speed:
   393                           	opt stack 0
   394  0000B3                     	ds	1
   395  0000B4                     _data_array:
   396                           	opt stack 0
   397  0000B4                     	ds	8
   398                           tblptru	equ	0xFF8
   399                           tblptrh	equ	0xFF7
   400                           tblptrl	equ	0xFF6
   401                           tablat	equ	0xFF5
   402                           postinc0	equ	0xFEE
   403                           wreg	equ	0xFE8
   404                           
   405                           	psect	dataBANK0
   406  0000BC                     __pdataBANK0:
   407                           	opt stack 0
   408  0000BC                     _currentSpeed:
   409                           	opt stack 0
   410  0000BC                     	ds	1
   411  0000BD                     _delay_quartz_frequency_value:
   412                           	opt stack 0
   413  0000BD                     	ds	1
   414                           tblptru	equ	0xFF8
   415                           tblptrh	equ	0xFF7
   416                           tblptrl	equ	0xFF6
   417                           tablat	equ	0xFF5
   418                           postinc0	equ	0xFEE
   419                           wreg	equ	0xFE8
   420                           
   421                           	psect	cstackBANK0
   422  000060                     __pcstackBANK0:
   423                           	opt stack 0
   424  000060                     ??_ISR_alta:
   425                           
   426                           ; 0 bytes @ 0x0
   427  000060                     	ds	14
   428  00006E                     ?_abs:
   429                           	opt stack 0
   430  00006E                     ?___awdiv:
   431                           	opt stack 0
   432  00006E                     CANOperationMode@mode:
   433                           	opt stack 0
   434  00006E                     _CANisTxReady$3033:
   435                           	opt stack 0
   436  00006E                     OpenEPWM1@period:
   437                           	opt stack 0
   438  00006E                     SetOutputEPWM1@outputmode:
   439                           	opt stack 0
   440  00006E                     OpenTimer2@config:
   441                           	opt stack 0
   442  00006E                     SetDCEPWM1@dutycycle:
   443                           	opt stack 0
   444  00006E                     abs@a:
   445                           	opt stack 0
   446  00006E                     ___awdiv@dividend:
   447                           	opt stack 0
   448  00006E                     CANsendMessage@identifier:
   449                           	opt stack 0
   450  00006E                     CANSetMask@mask:
   451                           	opt stack 0
   452  00006E                     CANSetFilter@filter:
   453                           	opt stack 0
   454                           
   455                           ; 4 bytes @ 0xE
   456  00006E                     	ds	1
   457  00006F                     SetOutputEPWM1@outputconfig:
   458                           	opt stack 0
   459                           
   460                           ; 1 bytes @ 0xF
   461  00006F                     	ds	1
   462  000070                     ??_abs:
   463  000070                     ??_SetDCEPWM1:
   464  000070                     ___awdiv@divisor:
   465                           	opt stack 0
   466                           
   467                           ; 2 bytes @ 0x10
   468  000070                     	ds	2
   469  000072                     CANSetMask@type:
   470                           	opt stack 0
   471  000072                     CANSetFilter@type:
   472                           	opt stack 0
   473  000072                     ___awdiv@counter:
   474                           	opt stack 0
   475  000072                     CANsendMessage@data:
   476                           	opt stack 0
   477  000072                     SetDCEPWM1@DCycle:
   478                           	opt stack 0
   479                           
   480                           ; 2 bytes @ 0x12
   481  000072                     	ds	1
   482  000073                     ??_CANSetMask:
   483  000073                     ??_CANSetFilter:
   484  000073                     ___awdiv@sign:
   485                           	opt stack 0
   486                           
   487                           ; 1 bytes @ 0x13
   488  000073                     	ds	1
   489  000074                     CANsendMessage@dataLength:
   490                           	opt stack 0
   491  000074                     ___awdiv@quotient:
   492                           	opt stack 0
   493                           
   494                           ; 2 bytes @ 0x14
   495  000074                     	ds	1
   496  000075                     CANsendMessage@flags:
   497                           	opt stack 0
   498                           
   499                           ; 1 bytes @ 0x15
   500  000075                     	ds	1
   501  000076                     ??_CANsendMessage:
   502  000076                     ?___wmul:
   503                           	opt stack 0
   504  000076                     ___wmul@multiplier:
   505                           	opt stack 0
   506                           
   507                           ; 2 bytes @ 0x16
   508  000076                     	ds	1
   509  000077                     CANSetMask@numBuffer:
   510                           	opt stack 0
   511  000077                     CANSetFilter@numBuffer:
   512                           	opt stack 0
   513                           
   514                           ; 1 bytes @ 0x17
   515  000077                     	ds	1
   516  000078                     ___wmul@multiplicand:
   517                           	opt stack 0
   518  000078                     CANSetMask@tamp:
   519                           	opt stack 0
   520  000078                     CANSetFilter@tamp:
   521                           	opt stack 0
   522                           
   523                           ; 4 bytes @ 0x18
   524  000078                     	ds	2
   525  00007A                     ___wmul@product:
   526                           	opt stack 0
   527  00007A                     CANsendMessage@tamp:
   528                           	opt stack 0
   529                           
   530                           ; 4 bytes @ 0x1A
   531  00007A                     	ds	2
   532  00007C                     CANInitialize@phaseSeg1:
   533                           	opt stack 0
   534  00007C                     delay_ms@value_ms:
   535                           	opt stack 0
   536                           
   537                           ; 2 bytes @ 0x1C
   538  00007C                     	ds	1
   539  00007D                     CANInitialize@phaseSeg2:
   540                           	opt stack 0
   541                           
   542                           ; 1 bytes @ 0x1D
   543  00007D                     	ds	1
   544  00007E                     CANInitialize@SJW:
   545                           	opt stack 0
   546                           
   547                           ; 1 bytes @ 0x1E
   548  00007E                     	ds	1
   549  00007F                     CANInitialize@BRP:
   550                           	opt stack 0
   551                           
   552                           ; 1 bytes @ 0x1F
   553  00007F                     	ds	1
   554  000080                     CANInitialize@flags:
   555                           	opt stack 0
   556                           
   557                           ; 1 bytes @ 0x20
   558  000080                     	ds	1
   559  000081                     ??_CANInitialize:
   560                           
   561                           ; 0 bytes @ 0x21
   562  000081                     	ds	4
   563  000085                     CANInitialize@propSeg:
   564                           	opt stack 0
   565                           
   566                           ; 1 bytes @ 0x25
   567  000085                     	ds	1
   568  000086                     CANInitialize@FilterConfig1:
   569                           	opt stack 0
   570                           
   571                           ; 1 bytes @ 0x26
   572  000086                     	ds	1
   573  000087                     CANInitialize@FilterConfig2:
   574                           	opt stack 0
   575                           
   576                           ; 1 bytes @ 0x27
   577  000087                     	ds	1
   578  000088                     ??_main:
   579                           
   580                           ; 0 bytes @ 0x28
   581  000088                     	ds	8
   582  000090                     main@period:
   583                           	opt stack 0
   584                           
   585                           ; 1 bytes @ 0x30
   586  000090                     	ds	1
   587                           tblptru	equ	0xFF8
   588                           tblptrh	equ	0xFF7
   589                           tblptrl	equ	0xFF6
   590                           tablat	equ	0xFF5
   591                           postinc0	equ	0xFEE
   592                           wreg	equ	0xFE8
   593                           
   594                           	psect	cstackCOMRAM
   595  00002A                     __pcstackCOMRAM:
   596                           	opt stack 0
   597  00002A                     _CANisRxReady$3035:
   598                           	opt stack 0
   599  00002A                     CANreceiveMessage@msg:
   600                           	opt stack 0
   601                           
   602                           ; 2 bytes @ 0x0
   603  00002A                     	ds	2
   604  00002C                     ??_CANreceiveMessage:
   605                           
   606                           ; 0 bytes @ 0x2
   607  00002C                     	ds	8
   608  000034                     CANreceiveMessage@error:
   609                           	opt stack 0
   610                           
   611                           ; 1 bytes @ 0xA
   612  000034                     	ds	1
   613  000035                     CANreceiveMessage@tamp:
   614                           	opt stack 0
   615                           
   616                           ; 1 bytes @ 0xB
   617  000035                     	ds	1
   618  000036                     ??_ISR_bassa:
   619                           
   620                           ; 0 bytes @ 0xC
   621  000036                     	ds	17
   622                           tblptru	equ	0xFF8
   623                           tblptrh	equ	0xFF7
   624                           tblptrl	equ	0xFF6
   625                           tablat	equ	0xFF5
   626                           postinc0	equ	0xFEE
   627                           wreg	equ	0xFE8
   628                           
   629 ;;
   630 ;;Main: autosize = 0, tempsize = 8, incstack = 0, save=0
   631 ;;
   632 ;; *************** function _main *****************
   633 ;; Defined at:
   634 ;;		line 143 in file "motore.c"
   635 ;; Parameters:    Size  Location     Type
   636 ;;		None
   637 ;; Auto vars:     Size  Location     Type
   638 ;;  period          1   48[BANK0 ] unsigned char 
   639 ;; Return value:  Size  Location     Type
   640 ;;                  2  672[None  ] int 
   641 ;; Registers used:
   642 ;;		wreg, fsr2l, fsr2h, status,2, status,0, prodl, prodh, cstack
   643 ;; Tracked objects:
   644 ;;		On entry : 0/0
   645 ;;		On exit  : 0/0
   646 ;;		Unchanged: 0/0
   647 ;; Data sizes:     COMRAM   BANK0   BANK1   BANK2
   648 ;;      Params:         0       0       0       0
   649 ;;      Locals:         0       1       0       0
   650 ;;      Temps:          0       8       0       0
   651 ;;      Totals:         0       9       0       0
   652 ;;Total ram usage:        9 bytes
   653 ;; Hardware stack levels required when called:    6
   654 ;; This function calls:
   655 ;;		_CANisRXwarningON
   656 ;;		_CANisTXwarningON
   657 ;;		_CANsendMessage
   658 ;;		_OpenEPWM1
   659 ;;		_OpenTimer2
   660 ;;		_SetDCEPWM1
   661 ;;		_SetOutputEPWM1
   662 ;;		___awdiv
   663 ;;		___wmul
   664 ;;		_abs
   665 ;;		_battery_measure
   666 ;;		_configurazione_iniziale
   667 ;;		_delay_ms
   668 ;;		_send_data
   669 ;; This function is called by:
   670 ;;		Startup code after reset
   671 ;; This function uses a non-reentrant model
   672 ;;
   673                           
   674                           	psect	text0
   675  00194C                     __ptext0:
   676                           	opt stack 0
   677  00194C                     _main:
   678                           	opt stack 25
   679                           
   680                           ;motore.c: 144: unsigned char period;
   681                           ;motore.c: 145: configurazione_iniziale();
   682                           
   683                           ;incstack = 0
   684  00194C  EC01  F012         	call	_configurazione_iniziale	;wreg free
   685                           
   686                           ;motore.c: 146: OpenTimer2(0b01111111 & 0b11111100 & 0b10000111);
   687  001950  0E04               	movlw	4
   688  001952  ECD5  F013         	call	_OpenTimer2
   689                           
   690                           ;motore.c: 147: period = 249;
   691  001956  0EF9               	movlw	249
   692  001958  0100               	movlb	0	; () banked
   693  00195A  6F90               	movwf	main@period& (0+255),b
   694                           
   695                           ; BSR set to: 0
   696                           ;motore.c: 148: OpenEPWM1(period);
   697  00195C  0100               	movlb	0	; () banked
   698  00195E  5190               	movf	main@period& (0+255),w,b
   699  001960  ECFC  F013         	call	_OpenEPWM1
   700                           
   701                           ;motore.c: 151: PORTD = 0xFF;
   702  001964  6883               	setf	3971,c	;volatile
   703                           
   704                           ;motore.c: 152: delay_ms(500);
   705  001966  0E01               	movlw	1
   706  001968  0100               	movlb	0	; () banked
   707  00196A  6F7D               	movwf	(delay_ms@value_ms+1)& (0+255),b
   708  00196C  0EF4               	movlw	244
   709  00196E  6F7C               	movwf	delay_ms@value_ms& (0+255),b
   710  001970  EC75  F013         	call	_delay_ms	;wreg free
   711                           
   712                           ;motore.c: 153: PORTD = 0x00;
   713  001974  0E00               	movlw	0
   714  001976  6E83               	movwf	3971,c	;volatile
   715                           
   716                           ;motore.c: 154: delay_ms(500);
   717  001978  0E01               	movlw	1
   718  00197A  0100               	movlb	0	; () banked
   719  00197C  6F7D               	movwf	(delay_ms@value_ms+1)& (0+255),b
   720  00197E  0EF4               	movlw	244
   721  001980  6F7C               	movwf	delay_ms@value_ms& (0+255),b
   722  001982  EC75  F013         	call	_delay_ms	;wreg free
   723                           
   724                           ;motore.c: 155: PORTD = 0xFF;
   725  001986  6883               	setf	3971,c	;volatile
   726                           
   727                           ;motore.c: 156: delay_ms(500);
   728  001988  0E01               	movlw	1
   729  00198A  0100               	movlb	0	; () banked
   730  00198C  6F7D               	movwf	(delay_ms@value_ms+1)& (0+255),b
   731  00198E  0EF4               	movlw	244
   732  001990  6F7C               	movwf	delay_ms@value_ms& (0+255),b
   733  001992  EC75  F013         	call	_delay_ms	;wreg free
   734                           
   735                           ;motore.c: 157: PORTD = 0x00;
   736  001996  0E00               	movlw	0
   737  001998  6E83               	movwf	3971,c	;volatile
   738                           
   739                           ;motore.c: 158: delay_ms(500);
   740  00199A  0E01               	movlw	1
   741  00199C  0100               	movlb	0	; () banked
   742  00199E  6F7D               	movwf	(delay_ms@value_ms+1)& (0+255),b
   743  0019A0  0EF4               	movlw	244
   744  0019A2  6F7C               	movwf	delay_ms@value_ms& (0+255),b
   745  0019A4  EC75  F013         	call	_delay_ms	;wreg free
   746  0019A8                     l4916:
   747                           
   748                           ;motore.c: 162: if (PORTAbits.RA7 == 0) {
   749  0019A8  BE80               	btfsc	3968,7,c	;volatile
   750  0019AA  D15B               	goto	l4970
   751                           
   752                           ;motore.c: 163: if (dir == 1) {
   753  0019AC  0100               	movlb	0	; () banked
   754  0019AE  05A9               	decf	_dir& (0+255),w,b
   755  0019B0  0100               	movlb	0	; () banked
   756  0019B2  11AA               	iorwf	(_dir+1)& (0+255),w,b
   757  0019B4  A4D8               	btfss	status,2,c
   758  0019B6  D008               	goto	l4926
   759                           
   760                           ; BSR set to: 0
   761                           ;motore.c: 164: SetOutputEPWM1(0b01111111, 0b11111111);
   762  0019B8  0EFF               	movlw	255
   763  0019BA  0100               	movlb	0	; () banked
   764  0019BC  6F6E               	movwf	SetOutputEPWM1@outputmode& (0+255),b
   765  0019BE  0E7F               	movlw	127
   766  0019C0  EC09  F013         	call	_SetOutputEPWM1
   767                           
   768                           ;motore.c: 165: PORTCbits.RC0 = 1;
   769  0019C4  8082               	bsf	3970,0,c	;volatile
   770                           
   771                           ;motore.c: 166: PORTCbits.RC1 = 0;
   772  0019C6  9282               	bcf	3970,1,c	;volatile
   773  0019C8                     l4926:
   774                           
   775                           ;motore.c: 167: }
   776                           ;motore.c: 168: if (dir == 0) {
   777  0019C8  0100               	movlb	0	; () banked
   778  0019CA  51A9               	movf	_dir& (0+255),w,b
   779  0019CC  0100               	movlb	0	; () banked
   780  0019CE  11AA               	iorwf	(_dir+1)& (0+255),w,b
   781  0019D0  A4D8               	btfss	status,2,c
   782  0019D2  D008               	goto	l4934
   783                           
   784                           ; BSR set to: 0
   785                           ;motore.c: 169: SetOutputEPWM1(0b11111111, 0b11111111);
   786  0019D4  0EFF               	movlw	255
   787  0019D6  0100               	movlb	0	; () banked
   788  0019D8  6F6E               	movwf	SetOutputEPWM1@outputmode& (0+255),b
   789  0019DA  0EFF               	movlw	255
   790  0019DC  EC09  F013         	call	_SetOutputEPWM1
   791                           
   792                           ;motore.c: 170: PORTCbits.RC0 = 0;
   793  0019E0  9082               	bcf	3970,0,c	;volatile
   794                           
   795                           ;motore.c: 171: PORTCbits.RC1 = 1;
   796  0019E2  8282               	bsf	3970,1,c	;volatile
   797  0019E4                     l4934:
   798                           
   799                           ;motore.c: 172: }
   800                           ;motore.c: 173: if (duty_set == 0) {
   801  0019E4  0100               	movlb	0	; () banked
   802  0019E6  51AF               	movf	_duty_set& (0+255),w,b
   803  0019E8  0100               	movlb	0	; () banked
   804  0019EA  A4D8               	btfss	status,2,c
   805  0019EC  D002               	goto	l4938
   806                           
   807                           ; BSR set to: 0
   808                           ;motore.c: 174: PORTCbits.RC0 = 0;
   809  0019EE  9082               	bcf	3970,0,c	;volatile
   810                           
   811                           ;motore.c: 175: PORTCbits.RC1 = 0;
   812  0019F0  9282               	bcf	3970,1,c	;volatile
   813  0019F2                     l4938:
   814                           
   815                           ; BSR set to: 0
   816                           ;motore.c: 176: }
   817                           ;motore.c: 177: if ((timeCounter - previousTimeCounter1 >= 10)) {
   818  0019F2  C09D  F088         	movff	_previousTimeCounter1,??_main
   819  0019F6  C09E  F089         	movff	_previousTimeCounter1+1,??_main+1
   820  0019FA  C09F  F08A         	movff	_previousTimeCounter1+2,??_main+2
   821  0019FE  C0A0  F08B         	movff	_previousTimeCounter1+3,??_main+3
   822  001A02  0100               	movlb	0	; () banked
   823  001A04  1F88               	comf	??_main& (0+255),f,b
   824  001A06  1F89               	comf	(??_main+1)& (0+255),f,b
   825  001A08  1F8A               	comf	(??_main+2)& (0+255),f,b
   826  001A0A  1F8B               	comf	(??_main+3)& (0+255),f,b
   827  001A0C  2B88               	incf	??_main& (0+255),f,b
   828  001A0E  0E00               	movlw	0
   829  001A10  2389               	addwfc	(??_main+1)& (0+255),f,b
   830  001A12  238A               	addwfc	(??_main+2)& (0+255),f,b
   831  001A14  238B               	addwfc	(??_main+3)& (0+255),f,b
   832  001A16  5015               	movf	_timeCounter,w,c
   833  001A18  0100               	movlb	0	; () banked
   834  001A1A  2588               	addwf	??_main& (0+255),w,b
   835  001A1C  0100               	movlb	0	; () banked
   836  001A1E  6F8C               	movwf	(??_main+4)& (0+255),b
   837  001A20  5016               	movf	_timeCounter+1,w,c
   838  001A22  0100               	movlb	0	; () banked
   839  001A24  2189               	addwfc	(??_main+1)& (0+255),w,b
   840  001A26  0100               	movlb	0	; () banked
   841  001A28  6F8D               	movwf	(??_main+5)& (0+255),b
   842  001A2A  5017               	movf	_timeCounter+2,w,c
   843  001A2C  0100               	movlb	0	; () banked
   844  001A2E  218A               	addwfc	(??_main+2)& (0+255),w,b
   845  001A30  0100               	movlb	0	; () banked
   846  001A32  6F8E               	movwf	(??_main+6)& (0+255),b
   847  001A34  5018               	movf	_timeCounter+3,w,c
   848  001A36  0100               	movlb	0	; () banked
   849  001A38  218B               	addwfc	(??_main+3)& (0+255),w,b
   850  001A3A  0100               	movlb	0	; () banked
   851  001A3C  6F8F               	movwf	(??_main+7)& (0+255),b
   852  001A3E  0100               	movlb	0	; () banked
   853  001A40  518F               	movf	(??_main+7)& (0+255),w,b
   854  001A42  0100               	movlb	0	; () banked
   855  001A44  118E               	iorwf	(??_main+6)& (0+255),w,b
   856  001A46  0100               	movlb	0	; () banked
   857  001A48  118D               	iorwf	(??_main+5)& (0+255),w,b
   858  001A4A  E105               	bnz	u6410
   859  001A4C  0E0A               	movlw	10
   860  001A4E  0100               	movlb	0	; () banked
   861  001A50  5D8C               	subwf	(??_main+4)& (0+255),w,b
   862  001A52  A0D8               	btfss	status,0,c
   863  001A54  D106               	goto	l4970
   864  001A56                     u6410:
   865                           
   866                           ; BSR set to: 0
   867                           ;motore.c: 178: CANsendMessage(0b00000000000000000000000000110, 0, 0, CAN_CONFIG_STD_MSG
      +                           & CAN_REMOTE_TX_FRAME & CAN_TX_PRIORITY_0);
   868  001A56  0E06               	movlw	6
   869  001A58  0100               	movlb	0	; () banked
   870  001A5A  6F6E               	movwf	CANsendMessage@identifier& (0+255),b
   871  001A5C  0E00               	movlw	0
   872  001A5E  6F6F               	movwf	(CANsendMessage@identifier+1)& (0+255),b
   873  001A60  0E00               	movlw	0
   874  001A62  6F70               	movwf	(CANsendMessage@identifier+2)& (0+255),b
   875  001A64  0E00               	movlw	0
   876  001A66  6F71               	movwf	(CANsendMessage@identifier+3)& (0+255),b
   877  001A68  0E00               	movlw	0
   878  001A6A  0100               	movlb	0	; () banked
   879  001A6C  6F72               	movwf	CANsendMessage@data& (0+255),b
   880  001A6E  0E00               	movlw	0
   881  001A70  0100               	movlb	0	; () banked
   882  001A72  6F73               	movwf	(CANsendMessage@data+1)& (0+255),b
   883  001A74  0E00               	movlw	0
   884  001A76  0100               	movlb	0	; () banked
   885  001A78  6F74               	movwf	CANsendMessage@dataLength& (0+255),b
   886  001A7A  0EFC               	movlw	252
   887  001A7C  0100               	movlb	0	; () banked
   888  001A7E  6F75               	movwf	CANsendMessage@flags& (0+255),b
   889  001A80  EC5A  F006         	call	_CANsendMessage	;wreg free
   890                           
   891                           ;motore.c: 179: if (speed_fetched == 1) {
   892  001A84  A048               	btfss	_speed_fetched/(0+8),_speed_fetched& (0+7),c
   893  001A86  D0ED               	goto	l4970
   894                           
   895                           ;motore.c: 180: speed_fetched = 0;
   896  001A88  9048               	bcf	_speed_fetched/(0+8),_speed_fetched& (0+7),c
   897                           
   898                           ;motore.c: 181: currentSpeed = ((left_speed + right_speed) / 2);
   899  001A8A  0100               	movlb	0	; () banked
   900  001A8C  51B0               	movf	_left_speed& (0+255),w,b
   901  001A8E  0100               	movlb	0	; () banked
   902  001A90  25B3               	addwf	_right_speed& (0+255),w,b
   903  001A92  0100               	movlb	0	; () banked
   904  001A94  6F6E               	movwf	___awdiv@dividend& (0+255),b
   905  001A96  0100               	movlb	0	; () banked
   906  001A98  6B6F               	clrf	(___awdiv@dividend+1)& (0+255),b
   907  001A9A  0100               	movlb	0	; () banked
   908  001A9C  376F               	rlcf	(___awdiv@dividend+1)& (0+255),f,b
   909  001A9E  0E00               	movlw	0
   910  001AA0  0100               	movlb	0	; () banked
   911  001AA2  6F71               	movwf	(___awdiv@divisor+1)& (0+255),b
   912  001AA4  0E02               	movlw	2
   913  001AA6  6F70               	movwf	___awdiv@divisor& (0+255),b
   914  001AA8  ECA2  F011         	call	___awdiv	;wreg free
   915  001AAC  0100               	movlb	0	; () banked
   916  001AAE  516E               	movf	?___awdiv& (0+255),w,b
   917  001AB0  0100               	movlb	0	; () banked
   918  001AB2  6FBC               	movwf	_currentSpeed& (0+255),b
   919                           
   920                           ; BSR set to: 0
   921                           ;motore.c: 182: if (currentSpeed - requestSpeed > 0) {
   922  001AB4  0100               	movlb	0	; () banked
   923  001AB6  51B2               	movf	_requestSpeed& (0+255),w,b
   924  001AB8  0100               	movlb	0	; () banked
   925  001ABA  6F88               	movwf	??_main& (0+255),b
   926  001ABC  6B89               	clrf	(??_main+1)& (0+255),b
   927  001ABE  0100               	movlb	0	; () banked
   928  001AC0  1F88               	comf	??_main& (0+255),f,b
   929  001AC2  1F89               	comf	(??_main+1)& (0+255),f,b
   930  001AC4  4B88               	infsnz	??_main& (0+255),f,b
   931  001AC6  2B89               	incf	(??_main+1)& (0+255),f,b
   932  001AC8  0100               	movlb	0	; () banked
   933  001ACA  51BC               	movf	_currentSpeed& (0+255),w,b
   934  001ACC  0100               	movlb	0	; () banked
   935  001ACE  6F8A               	movwf	(??_main+2)& (0+255),b
   936  001AD0  6B8B               	clrf	(??_main+3)& (0+255),b
   937  001AD2  0100               	movlb	0	; () banked
   938  001AD4  5188               	movf	??_main& (0+255),w,b
   939  001AD6  0100               	movlb	0	; () banked
   940  001AD8  278A               	addwf	(??_main+2)& (0+255),f,b
   941  001ADA  0100               	movlb	0	; () banked
   942  001ADC  5189               	movf	(??_main+1)& (0+255),w,b
   943  001ADE  0100               	movlb	0	; () banked
   944  001AE0  238B               	addwfc	(??_main+3)& (0+255),f,b
   945  001AE2  0100               	movlb	0	; () banked
   946  001AE4  BF8B               	btfsc	(??_main+3)& (0+255),7,b
   947  001AE6  D0B5               	goto	l4968
   948  001AE8  0100               	movlb	0	; () banked
   949  001AEA  518B               	movf	(??_main+3)& (0+255),w,b
   950  001AEC  E104               	bnz	u6430
   951  001AEE  0100               	movlb	0	; () banked
   952  001AF0  058A               	decf	(??_main+2)& (0+255),w,b
   953  001AF2  A0D8               	btfss	status,0,c
   954  001AF4  D0AE               	goto	l4968
   955  001AF6                     u6430:
   956                           
   957                           ; BSR set to: 0
   958                           ;motore.c: 183: errore = abs(currentSpeed - requestSpeed);
   959  001AF6  0100               	movlb	0	; () banked
   960  001AF8  51B2               	movf	_requestSpeed& (0+255),w,b
   961  001AFA  0100               	movlb	0	; () banked
   962  001AFC  6F88               	movwf	??_main& (0+255),b
   963  001AFE  6B89               	clrf	(??_main+1)& (0+255),b
   964  001B00  0100               	movlb	0	; () banked
   965  001B02  1F88               	comf	??_main& (0+255),f,b
   966  001B04  1F89               	comf	(??_main+1)& (0+255),f,b
   967  001B06  4B88               	infsnz	??_main& (0+255),f,b
   968  001B08  2B89               	incf	(??_main+1)& (0+255),f,b
   969  001B0A  0100               	movlb	0	; () banked
   970  001B0C  51BC               	movf	_currentSpeed& (0+255),w,b
   971  001B0E  0100               	movlb	0	; () banked
   972  001B10  2588               	addwf	??_main& (0+255),w,b
   973  001B12  0100               	movlb	0	; () banked
   974  001B14  6F6E               	movwf	abs@a& (0+255),b
   975  001B16  0E00               	movlw	0
   976  001B18  0100               	movlb	0	; () banked
   977  001B1A  2189               	addwfc	(??_main+1)& (0+255),w,b
   978  001B1C  0100               	movlb	0	; () banked
   979  001B1E  6F6F               	movwf	(abs@a+1)& (0+255),b
   980  001B20  ECAD  F013         	call	_abs	;wreg free
   981  001B24  C06E  F0AB         	movff	?_abs,_errore
   982  001B28  C06F  F0AC         	movff	?_abs+1,_errore+1
   983                           
   984                           ;motore.c: 184: correzione = ((errore / 17)*(errore / 17))*4;
   985  001B2C  0E00               	movlw	0
   986  001B2E  0100               	movlb	0	; () banked
   987  001B30  6F71               	movwf	(___awdiv@divisor+1)& (0+255),b
   988  001B32  0E11               	movlw	17
   989  001B34  6F70               	movwf	___awdiv@divisor& (0+255),b
   990  001B36  C0AB  F06E         	movff	_errore,___awdiv@dividend
   991  001B3A  C0AC  F06F         	movff	_errore+1,___awdiv@dividend+1
   992  001B3E  ECA2  F011         	call	___awdiv	;wreg free
   993  001B42  C06E  F076         	movff	?___awdiv,___wmul@multiplier
   994  001B46  C06F  F077         	movff	?___awdiv+1,___wmul@multiplier+1
   995  001B4A  0E00               	movlw	0
   996  001B4C  0100               	movlb	0	; () banked
   997  001B4E  6F71               	movwf	(___awdiv@divisor+1)& (0+255),b
   998  001B50  0E11               	movlw	17
   999  001B52  6F70               	movwf	___awdiv@divisor& (0+255),b
  1000  001B54  C0AB  F06E         	movff	_errore,___awdiv@dividend
  1001  001B58  C0AC  F06F         	movff	_errore+1,___awdiv@dividend+1
  1002  001B5C  ECA2  F011         	call	___awdiv	;wreg free
  1003  001B60  C06E  F078         	movff	?___awdiv,___wmul@multiplicand
  1004  001B64  C06F  F079         	movff	?___awdiv+1,___wmul@multiplicand+1
  1005  001B68  EC92  F013         	call	___wmul	;wreg free
  1006  001B6C  0100               	movlb	0	; () banked
  1007  001B6E  90D8               	bcf	status,0,c
  1008  001B70  3776               	rlcf	?___wmul& (0+255),f,b
  1009  001B72  3777               	rlcf	(?___wmul+1)& (0+255),f,b
  1010  001B74  0100               	movlb	0	; () banked
  1011  001B76  90D8               	bcf	status,0,c
  1012  001B78  3776               	rlcf	?___wmul& (0+255),f,b
  1013  001B7A  3777               	rlcf	(?___wmul+1)& (0+255),f,b
  1014  001B7C  C076  F0A7         	movff	?___wmul,_correzione
  1015  001B80  C077  F0A8         	movff	?___wmul+1,_correzione+1
  1016                           
  1017                           ; BSR set to: 0
  1018                           ;motore.c: 185: if (correzione > 1) {
  1019  001B84  0100               	movlb	0	; () banked
  1020  001B86  51A8               	movf	(_correzione+1)& (0+255),w,b
  1021  001B88  E105               	bnz	u6440
  1022  001B8A  0E02               	movlw	2
  1023  001B8C  0100               	movlb	0	; () banked
  1024  001B8E  5DA7               	subwf	_correzione& (0+255),w,b
  1025  001B90  A0D8               	btfss	status,0,c
  1026  001B92  D057               	goto	l681
  1027  001B94                     u6440:
  1028                           
  1029                           ; BSR set to: 0
  1030                           ;motore.c: 186: if ((currentSpeed - requestSpeed) > 0) {
  1031  001B94  0100               	movlb	0	; () banked
  1032  001B96  51B2               	movf	_requestSpeed& (0+255),w,b
  1033  001B98  0100               	movlb	0	; () banked
  1034  001B9A  6F88               	movwf	??_main& (0+255),b
  1035  001B9C  6B89               	clrf	(??_main+1)& (0+255),b
  1036  001B9E  0100               	movlb	0	; () banked
  1037  001BA0  1F88               	comf	??_main& (0+255),f,b
  1038  001BA2  1F89               	comf	(??_main+1)& (0+255),f,b
  1039  001BA4  4B88               	infsnz	??_main& (0+255),f,b
  1040  001BA6  2B89               	incf	(??_main+1)& (0+255),f,b
  1041  001BA8  0100               	movlb	0	; () banked
  1042  001BAA  51BC               	movf	_currentSpeed& (0+255),w,b
  1043  001BAC  0100               	movlb	0	; () banked
  1044  001BAE  6F8A               	movwf	(??_main+2)& (0+255),b
  1045  001BB0  6B8B               	clrf	(??_main+3)& (0+255),b
  1046  001BB2  0100               	movlb	0	; () banked
  1047  001BB4  5188               	movf	??_main& (0+255),w,b
  1048  001BB6  0100               	movlb	0	; () banked
  1049  001BB8  278A               	addwf	(??_main+2)& (0+255),f,b
  1050  001BBA  0100               	movlb	0	; () banked
  1051  001BBC  5189               	movf	(??_main+1)& (0+255),w,b
  1052  001BBE  0100               	movlb	0	; () banked
  1053  001BC0  238B               	addwfc	(??_main+3)& (0+255),f,b
  1054  001BC2  0100               	movlb	0	; () banked
  1055  001BC4  BF8B               	btfsc	(??_main+3)& (0+255),7,b
  1056  001BC6  D036               	goto	l682
  1057  001BC8  0100               	movlb	0	; () banked
  1058  001BCA  518B               	movf	(??_main+3)& (0+255),w,b
  1059  001BCC  E104               	bnz	u6450
  1060  001BCE  0100               	movlb	0	; () banked
  1061  001BD0  058A               	decf	(??_main+2)& (0+255),w,b
  1062  001BD2  A0D8               	btfss	status,0,c
  1063  001BD4  D02F               	goto	l682
  1064  001BD6                     u6450:
  1065                           
  1066                           ; BSR set to: 0
  1067                           ;motore.c: 187: if (previousPwm > correzione) {
  1068  001BD6  0100               	movlb	0	; () banked
  1069  001BD8  51B1               	movf	_previousPwm& (0+255),w,b
  1070  001BDA  0100               	movlb	0	; () banked
  1071  001BDC  5DA7               	subwf	_correzione& (0+255),w,b
  1072  001BDE  0E00               	movlw	0
  1073  001BE0  59A8               	subwfb	(_correzione+1)& (0+255),w,b
  1074  001BE2  B0D8               	btfsc	status,0,c
  1075  001BE4  D007               	goto	l683
  1076                           
  1077                           ; BSR set to: 0
  1078                           ;motore.c: 188: duty_set = previousPwm - correzione;
  1079  001BE6  0100               	movlb	0	; () banked
  1080  001BE8  51A7               	movf	_correzione& (0+255),w,b
  1081  001BEA  0800               	sublw	0
  1082  001BEC  0100               	movlb	0	; () banked
  1083  001BEE  25B1               	addwf	_previousPwm& (0+255),w,b
  1084  001BF0  0100               	movlb	0	; () banked
  1085  001BF2  6FAF               	movwf	_duty_set& (0+255),b
  1086  001BF4                     l683:
  1087                           
  1088                           ; BSR set to: 0
  1089                           ;motore.c: 189: }
  1090                           ;motore.c: 190: if ((currentSpeed - requestSpeed) < 0) {
  1091  001BF4  0100               	movlb	0	; () banked
  1092  001BF6  51B2               	movf	_requestSpeed& (0+255),w,b
  1093  001BF8  0100               	movlb	0	; () banked
  1094  001BFA  6F88               	movwf	??_main& (0+255),b
  1095  001BFC  6B89               	clrf	(??_main+1)& (0+255),b
  1096  001BFE  0100               	movlb	0	; () banked
  1097  001C00  1F88               	comf	??_main& (0+255),f,b
  1098  001C02  1F89               	comf	(??_main+1)& (0+255),f,b
  1099  001C04  4B88               	infsnz	??_main& (0+255),f,b
  1100  001C06  2B89               	incf	(??_main+1)& (0+255),f,b
  1101  001C08  0100               	movlb	0	; () banked
  1102  001C0A  51BC               	movf	_currentSpeed& (0+255),w,b
  1103  001C0C  0100               	movlb	0	; () banked
  1104  001C0E  6F8A               	movwf	(??_main+2)& (0+255),b
  1105  001C10  6B8B               	clrf	(??_main+3)& (0+255),b
  1106  001C12  0100               	movlb	0	; () banked
  1107  001C14  5188               	movf	??_main& (0+255),w,b
  1108  001C16  0100               	movlb	0	; () banked
  1109  001C18  278A               	addwf	(??_main+2)& (0+255),f,b
  1110  001C1A  0100               	movlb	0	; () banked
  1111  001C1C  5189               	movf	(??_main+1)& (0+255),w,b
  1112  001C1E  0100               	movlb	0	; () banked
  1113  001C20  238B               	addwfc	(??_main+3)& (0+255),f,b
  1114  001C22  0100               	movlb	0	; () banked
  1115  001C24  AF8B               	btfss	(??_main+3)& (0+255),7,b
  1116  001C26  D006               	goto	l682
  1117                           
  1118                           ; BSR set to: 0
  1119                           ;motore.c: 191: duty_set = previousPwm + correzione;
  1120  001C28  0100               	movlb	0	; () banked
  1121  001C2A  51B1               	movf	_previousPwm& (0+255),w,b
  1122  001C2C  0100               	movlb	0	; () banked
  1123  001C2E  25A7               	addwf	_correzione& (0+255),w,b
  1124  001C30  0100               	movlb	0	; () banked
  1125  001C32  6FAF               	movwf	_duty_set& (0+255),b
  1126  001C34                     l682:
  1127                           
  1128                           ; BSR set to: 0
  1129                           ;motore.c: 192: }
  1130                           ;motore.c: 193: }
  1131                           ;motore.c: 194: if (correzione < 1) {
  1132  001C34  0100               	movlb	0	; () banked
  1133  001C36  51A7               	movf	_correzione& (0+255),w,b
  1134  001C38  0100               	movlb	0	; () banked
  1135  001C3A  11A8               	iorwf	(_correzione+1)& (0+255),w,b
  1136  001C3C  B4D8               	btfsc	status,2,c
  1137                           
  1138                           ; BSR set to: 0
  1139                           ;motore.c: 195: duty_set = previousPwm;
  1140  001C3E  C0B1  F0AF         	movff	_previousPwm,_duty_set
  1141  001C42                     l681:
  1142                           
  1143                           ; BSR set to: 0
  1144                           ;motore.c: 196: }
  1145                           ;motore.c: 197: }
  1146                           ;motore.c: 198: previousPwm = duty_set;
  1147  001C42  C0AF  F0B1         	movff	_duty_set,_previousPwm
  1148                           
  1149                           ; BSR set to: 0
  1150                           ;motore.c: 199: SetDCEPWM1(duty_set);
  1151  001C46  C0AF  F06E         	movff	_duty_set,SetDCEPWM1@dutycycle
  1152  001C4A  0100               	movlb	0	; () banked
  1153  001C4C  6B6F               	clrf	(SetDCEPWM1@dutycycle+1)& (0+255),b
  1154  001C4E  EC32  F013         	call	_SetDCEPWM1	;wreg free
  1155  001C52                     l4968:
  1156                           
  1157                           ;motore.c: 200: }
  1158                           ;motore.c: 201: previousTimeCounter1 = timeCounter;
  1159  001C52  C015  F09D         	movff	_timeCounter,_previousTimeCounter1
  1160  001C56  C016  F09E         	movff	_timeCounter+1,_previousTimeCounter1+1
  1161  001C5A  C017  F09F         	movff	_timeCounter+2,_previousTimeCounter1+2
  1162  001C5E  C018  F0A0         	movff	_timeCounter+3,_previousTimeCounter1+3
  1163  001C62                     l4970:
  1164                           
  1165                           ;motore.c: 202: }
  1166                           ;motore.c: 203: }
  1167                           ;motore.c: 204: }
  1168                           ;motore.c: 205: if ((remote_frame == 1) || (can_retry == 1)) {
  1169  001C62  AA47               	btfss	_remote_frame/(0+8),_remote_frame& (0+7),c
  1170  001C64  B047               	btfsc	_can_retry/(0+8),_can_retry& (0+7),c
  1171  001C66  D001               	goto	l4974
  1172  001C68  D002               	goto	l4976
  1173  001C6A                     l4974:
  1174                           
  1175                           ;motore.c: 206: send_data();
  1176  001C6A  EC98  F012         	call	_send_data	;wreg free
  1177  001C6E                     l4976:
  1178                           
  1179                           ;motore.c: 207: }
  1180                           ;motore.c: 208: if ((CANisTXwarningON() == 1) || (CANisRXwarningON() == 1)) {
  1181  001C6E  EC05  F014         	call	_CANisTXwarningON	;wreg free
  1182  001C72  06E8               	decf	wreg,f,c
  1183  001C74  B4D8               	btfsc	status,2,c
  1184  001C76  D005               	goto	l4980
  1185  001C78  EC0B  F014         	call	_CANisRXwarningON	;wreg free
  1186  001C7C  06E8               	decf	wreg,f,c
  1187  001C7E  A4D8               	btfss	status,2,c
  1188  001C80  D009               	goto	l689
  1189  001C82                     l4980:
  1190                           
  1191                           ;motore.c: 209: SetDCEPWM1(0);
  1192  001C82  0E00               	movlw	0
  1193  001C84  0100               	movlb	0	; () banked
  1194  001C86  6F6F               	movwf	(SetDCEPWM1@dutycycle+1)& (0+255),b
  1195  001C88  0E00               	movlw	0
  1196  001C8A  6F6E               	movwf	SetDCEPWM1@dutycycle& (0+255),b
  1197  001C8C  EC32  F013         	call	_SetDCEPWM1	;wreg free
  1198                           
  1199                           ;motore.c: 210: PORTAbits.RA7 = 1;
  1200  001C90  8E80               	bsf	3968,7,c	;volatile
  1201                           
  1202                           ;motore.c: 211: } else {
  1203  001C92  D001               	goto	l4984
  1204  001C94                     l689:
  1205                           
  1206                           ;motore.c: 212: PORTAbits.RA7 = 0;
  1207  001C94  9E80               	bcf	3968,7,c	;volatile
  1208  001C96                     l4984:
  1209                           
  1210                           ;motore.c: 213: }
  1211                           ;motore.c: 216: if ((timeCounter - previousTimeCounter) > 100) {
  1212  001C96  C099  F088         	movff	_previousTimeCounter,??_main
  1213  001C9A  C09A  F089         	movff	_previousTimeCounter+1,??_main+1
  1214  001C9E  C09B  F08A         	movff	_previousTimeCounter+2,??_main+2
  1215  001CA2  C09C  F08B         	movff	_previousTimeCounter+3,??_main+3
  1216  001CA6  0100               	movlb	0	; () banked
  1217  001CA8  1F88               	comf	??_main& (0+255),f,b
  1218  001CAA  1F89               	comf	(??_main+1)& (0+255),f,b
  1219  001CAC  1F8A               	comf	(??_main+2)& (0+255),f,b
  1220  001CAE  1F8B               	comf	(??_main+3)& (0+255),f,b
  1221  001CB0  2B88               	incf	??_main& (0+255),f,b
  1222  001CB2  0E00               	movlw	0
  1223  001CB4  2389               	addwfc	(??_main+1)& (0+255),f,b
  1224  001CB6  238A               	addwfc	(??_main+2)& (0+255),f,b
  1225  001CB8  238B               	addwfc	(??_main+3)& (0+255),f,b
  1226  001CBA  5015               	movf	_timeCounter,w,c
  1227  001CBC  0100               	movlb	0	; () banked
  1228  001CBE  2588               	addwf	??_main& (0+255),w,b
  1229  001CC0  0100               	movlb	0	; () banked
  1230  001CC2  6F8C               	movwf	(??_main+4)& (0+255),b
  1231  001CC4  5016               	movf	_timeCounter+1,w,c
  1232  001CC6  0100               	movlb	0	; () banked
  1233  001CC8  2189               	addwfc	(??_main+1)& (0+255),w,b
  1234  001CCA  0100               	movlb	0	; () banked
  1235  001CCC  6F8D               	movwf	(??_main+5)& (0+255),b
  1236  001CCE  5017               	movf	_timeCounter+2,w,c
  1237  001CD0  0100               	movlb	0	; () banked
  1238  001CD2  218A               	addwfc	(??_main+2)& (0+255),w,b
  1239  001CD4  0100               	movlb	0	; () banked
  1240  001CD6  6F8E               	movwf	(??_main+6)& (0+255),b
  1241  001CD8  5018               	movf	_timeCounter+3,w,c
  1242  001CDA  0100               	movlb	0	; () banked
  1243  001CDC  218B               	addwfc	(??_main+3)& (0+255),w,b
  1244  001CDE  0100               	movlb	0	; () banked
  1245  001CE0  6F8F               	movwf	(??_main+7)& (0+255),b
  1246  001CE2  0100               	movlb	0	; () banked
  1247  001CE4  518F               	movf	(??_main+7)& (0+255),w,b
  1248  001CE6  0100               	movlb	0	; () banked
  1249  001CE8  118E               	iorwf	(??_main+6)& (0+255),w,b
  1250  001CEA  0100               	movlb	0	; () banked
  1251  001CEC  118D               	iorwf	(??_main+5)& (0+255),w,b
  1252  001CEE  E105               	bnz	u6530
  1253  001CF0  0E65               	movlw	101
  1254  001CF2  0100               	movlb	0	; () banked
  1255  001CF4  5D8C               	subwf	(??_main+4)& (0+255),w,b
  1256  001CF6  A0D8               	btfss	status,0,c
  1257  001CF8  D036               	goto	l5008
  1258  001CFA                     u6530:
  1259                           
  1260                           ; BSR set to: 0
  1261                           ;motore.c: 217: if (request_sent == 0) {
  1262  001CFA  BE47               	btfsc	_request_sent/(0+8),_request_sent& (0+7),c
  1263  001CFC  D018               	goto	l4992
  1264                           
  1265                           ; BSR set to: 0
  1266                           ;motore.c: 218: CANsendMessage(0b00000000000000000000000000010, data_array, 8, CAN_CONFI
      +                          G_STD_MSG & CAN_REMOTE_TX_FRAME & CAN_TX_PRIORITY_0);
  1267  001CFE  0E02               	movlw	2
  1268  001D00  0100               	movlb	0	; () banked
  1269  001D02  6F6E               	movwf	CANsendMessage@identifier& (0+255),b
  1270  001D04  0E00               	movlw	0
  1271  001D06  6F6F               	movwf	(CANsendMessage@identifier+1)& (0+255),b
  1272  001D08  0E00               	movlw	0
  1273  001D0A  6F70               	movwf	(CANsendMessage@identifier+2)& (0+255),b
  1274  001D0C  0E00               	movlw	0
  1275  001D0E  6F71               	movwf	(CANsendMessage@identifier+3)& (0+255),b
  1276  001D10  0EB4               	movlw	low _data_array
  1277  001D12  0100               	movlb	0	; () banked
  1278  001D14  6F72               	movwf	CANsendMessage@data& (0+255),b
  1279  001D16  0E00               	movlw	high _data_array
  1280  001D18  0100               	movlb	0	; () banked
  1281  001D1A  6F73               	movwf	(CANsendMessage@data+1)& (0+255),b
  1282  001D1C  0E08               	movlw	8
  1283  001D1E  0100               	movlb	0	; () banked
  1284  001D20  6F74               	movwf	CANsendMessage@dataLength& (0+255),b
  1285  001D22  0EFC               	movlw	252
  1286  001D24  0100               	movlb	0	; () banked
  1287  001D26  6F75               	movwf	CANsendMessage@flags& (0+255),b
  1288  001D28  EC5A  F006         	call	_CANsendMessage	;wreg free
  1289                           
  1290                           ;motore.c: 219: request_sent = 1;
  1291  001D2C  8E47               	bsf	_request_sent/(0+8),_request_sent& (0+7),c
  1292  001D2E                     l4992:
  1293                           
  1294                           ;motore.c: 220: }
  1295                           ;motore.c: 221: if (request_sent == 1) {
  1296  001D2E  AE47               	btfss	_request_sent/(0+8),_request_sent& (0+7),c
  1297  001D30  D012               	goto	l5006
  1298                           
  1299                           ;motore.c: 223: if ((centralina_abs == 1)&&(centralina_sterzo == 1)&&(centralina_comando
      +                           == 1)) {
  1300  001D32  B247               	btfsc	_centralina_abs/(0+8),_centralina_abs& (0+7),c
  1301  001D34  A647               	btfss	_centralina_sterzo/(0+8),_centralina_sterzo& (0+7),c
  1302  001D36  D007               	goto	l5002
  1303  001D38  A447               	btfss	_centralina_comando/(0+8),_centralina_comando& (0+7),c
  1304  001D3A  D005               	goto	l5002
  1305                           
  1306                           ;motore.c: 224: centralina_abs = 0;
  1307  001D3C  9247               	bcf	_centralina_abs/(0+8),_centralina_abs& (0+7),c
  1308                           
  1309                           ;motore.c: 225: centralina_sterzo = 0;
  1310  001D3E  9647               	bcf	_centralina_sterzo/(0+8),_centralina_sterzo& (0+7),c
  1311                           
  1312                           ;motore.c: 226: centralina_comando = 0;
  1313  001D40  9447               	bcf	_centralina_comando/(0+8),_centralina_comando& (0+7),c
  1314                           
  1315                           ;motore.c: 227: PORTAbits.RA7 = 0;
  1316  001D42  9E80               	bcf	3968,7,c	;volatile
  1317                           
  1318                           ;motore.c: 228: } else {
  1319  001D44  D008               	goto	l5006
  1320  001D46                     l5002:
  1321                           
  1322                           ;motore.c: 229: SetDCEPWM1(0);
  1323  001D46  0E00               	movlw	0
  1324  001D48  0100               	movlb	0	; () banked
  1325  001D4A  6F6F               	movwf	(SetDCEPWM1@dutycycle+1)& (0+255),b
  1326  001D4C  0E00               	movlw	0
  1327  001D4E  6F6E               	movwf	SetDCEPWM1@dutycycle& (0+255),b
  1328  001D50  EC32  F013         	call	_SetDCEPWM1	;wreg free
  1329                           
  1330                           ;motore.c: 230: PORTAbits.RA7 = 1;
  1331  001D54  8E80               	bsf	3968,7,c	;volatile
  1332  001D56                     l5006:
  1333                           
  1334                           ;motore.c: 231: }
  1335                           ;motore.c: 232: }
  1336                           ;motore.c: 233: previousTimeCounter = timeCounter;
  1337  001D56  C015  F099         	movff	_timeCounter,_previousTimeCounter
  1338  001D5A  C016  F09A         	movff	_timeCounter+1,_previousTimeCounter+1
  1339  001D5E  C017  F09B         	movff	_timeCounter+2,_previousTimeCounter+2
  1340  001D62  C018  F09C         	movff	_timeCounter+3,_previousTimeCounter+3
  1341  001D66                     l5008:
  1342                           
  1343                           ;motore.c: 234: }
  1344                           ;motore.c: 235: if ((timeCounter - previousTimeCounter2 >= 100)) {
  1345  001D66  C0A1  F088         	movff	_previousTimeCounter2,??_main
  1346  001D6A  C0A2  F089         	movff	_previousTimeCounter2+1,??_main+1
  1347  001D6E  C0A3  F08A         	movff	_previousTimeCounter2+2,??_main+2
  1348  001D72  C0A4  F08B         	movff	_previousTimeCounter2+3,??_main+3
  1349  001D76  0100               	movlb	0	; () banked
  1350  001D78  1F88               	comf	??_main& (0+255),f,b
  1351  001D7A  1F89               	comf	(??_main+1)& (0+255),f,b
  1352  001D7C  1F8A               	comf	(??_main+2)& (0+255),f,b
  1353  001D7E  1F8B               	comf	(??_main+3)& (0+255),f,b
  1354  001D80  2B88               	incf	??_main& (0+255),f,b
  1355  001D82  0E00               	movlw	0
  1356  001D84  2389               	addwfc	(??_main+1)& (0+255),f,b
  1357  001D86  238A               	addwfc	(??_main+2)& (0+255),f,b
  1358  001D88  238B               	addwfc	(??_main+3)& (0+255),f,b
  1359  001D8A  5015               	movf	_timeCounter,w,c
  1360  001D8C  0100               	movlb	0	; () banked
  1361  001D8E  2588               	addwf	??_main& (0+255),w,b
  1362  001D90  0100               	movlb	0	; () banked
  1363  001D92  6F8C               	movwf	(??_main+4)& (0+255),b
  1364  001D94  5016               	movf	_timeCounter+1,w,c
  1365  001D96  0100               	movlb	0	; () banked
  1366  001D98  2189               	addwfc	(??_main+1)& (0+255),w,b
  1367  001D9A  0100               	movlb	0	; () banked
  1368  001D9C  6F8D               	movwf	(??_main+5)& (0+255),b
  1369  001D9E  5017               	movf	_timeCounter+2,w,c
  1370  001DA0  0100               	movlb	0	; () banked
  1371  001DA2  218A               	addwfc	(??_main+2)& (0+255),w,b
  1372  001DA4  0100               	movlb	0	; () banked
  1373  001DA6  6F8E               	movwf	(??_main+6)& (0+255),b
  1374  001DA8  5018               	movf	_timeCounter+3,w,c
  1375  001DAA  0100               	movlb	0	; () banked
  1376  001DAC  218B               	addwfc	(??_main+3)& (0+255),w,b
  1377  001DAE  0100               	movlb	0	; () banked
  1378  001DB0  6F8F               	movwf	(??_main+7)& (0+255),b
  1379  001DB2  0100               	movlb	0	; () banked
  1380  001DB4  518F               	movf	(??_main+7)& (0+255),w,b
  1381  001DB6  0100               	movlb	0	; () banked
  1382  001DB8  118E               	iorwf	(??_main+6)& (0+255),w,b
  1383  001DBA  0100               	movlb	0	; () banked
  1384  001DBC  118D               	iorwf	(??_main+5)& (0+255),w,b
  1385  001DBE  E105               	bnz	u6590
  1386  001DC0  0E64               	movlw	100
  1387  001DC2  0100               	movlb	0	; () banked
  1388  001DC4  5D8C               	subwf	(??_main+4)& (0+255),w,b
  1389  001DC6  A0D8               	btfss	status,0,c
  1390  001DC8  D5EF               	goto	l4916
  1391  001DCA                     u6590:
  1392                           
  1393                           ; BSR set to: 0
  1394                           ;motore.c: 237: battery_measure();
  1395  001DCA  EC4E  F012         	call	_battery_measure	;wreg free
  1396                           
  1397                           ;motore.c: 238: previousTimeCounter2 = timeCounter;
  1398  001DCE  C015  F0A1         	movff	_timeCounter,_previousTimeCounter2
  1399  001DD2  C016  F0A2         	movff	_timeCounter+1,_previousTimeCounter2+1
  1400  001DD6  C017  F0A3         	movff	_timeCounter+2,_previousTimeCounter2+2
  1401  001DDA  C018  F0A4         	movff	_timeCounter+3,_previousTimeCounter2+3
  1402  001DDE  D5E4               	goto	l4916
  1403  001DE0                     __end_of_main:
  1404                           	opt stack 0
  1405                           tblptru	equ	0xFF8
  1406                           tblptrh	equ	0xFF7
  1407                           tblptrl	equ	0xFF6
  1408                           tablat	equ	0xFF5
  1409                           postinc0	equ	0xFEE
  1410                           wreg	equ	0xFE8
  1411                           status	equ	0xFD8
  1412                           
  1413 ;; *************** function _send_data *****************
  1414 ;; Defined at:
  1415 ;;		line 243 in file "motore.c"
  1416 ;; Parameters:    Size  Location     Type
  1417 ;;		None
  1418 ;; Auto vars:     Size  Location     Type
  1419 ;;		None
  1420 ;; Return value:  Size  Location     Type
  1421 ;;		None               void
  1422 ;; Registers used:
  1423 ;;		wreg, fsr2l, fsr2h, status,2, status,0, cstack
  1424 ;; Tracked objects:
  1425 ;;		On entry : 0/0
  1426 ;;		On exit  : 0/0
  1427 ;;		Unchanged: 0/0
  1428 ;; Data sizes:     COMRAM   BANK0   BANK1   BANK2
  1429 ;;      Params:         0       0       0       0
  1430 ;;      Locals:         0       0       0       0
  1431 ;;      Temps:          0       0       0       0
  1432 ;;      Totals:         0       0       0       0
  1433 ;;Total ram usage:        0 bytes
  1434 ;; Hardware stack levels used:    1
  1435 ;; Hardware stack levels required when called:    4
  1436 ;; This function calls:
  1437 ;;		_CANisTxReady
  1438 ;;		_CANsendMessage
  1439 ;; This function is called by:
  1440 ;;		_main
  1441 ;; This function uses a non-reentrant model
  1442 ;;
  1443                           
  1444                           	psect	text1
  1445  002530                     __ptext1:
  1446                           	opt stack 0
  1447  002530                     _send_data:
  1448                           	opt stack 26
  1449                           
  1450                           ;motore.c: 244: if (CANisTxReady()) {
  1451                           
  1452                           ;incstack = 0
  1453  002530  ECC3  F013         	call	_CANisTxReady	;wreg free
  1454  002534  0900               	iorlw	0
  1455  002536  A4D8               	btfss	status,2,c
  1456                           
  1457                           ;motore.c: 245: if (remote_frame == 1) {
  1458  002538  AA47               	btfss	_remote_frame/(0+8),_remote_frame& (0+7),c
  1459  00253A  D017               	goto	l4868
  1460                           
  1461                           ;motore.c: 246: CANsendMessage(id, data_array, 8, CAN_CONFIG_STD_MSG & CAN_NORMAL_TX_FRA
      +                          ME & CAN_TX_PRIORITY_0);
  1462  00253C  C00D  F06E         	movff	_id,CANsendMessage@identifier
  1463  002540  C00E  F06F         	movff	_id+1,CANsendMessage@identifier+1
  1464  002544  C00F  F070         	movff	_id+2,CANsendMessage@identifier+2
  1465  002548  C010  F071         	movff	_id+3,CANsendMessage@identifier+3
  1466  00254C  0EB4               	movlw	low _data_array
  1467  00254E  0100               	movlb	0	; () banked
  1468  002550  6F72               	movwf	CANsendMessage@data& (0+255),b
  1469  002552  0E00               	movlw	high _data_array
  1470  002554  0100               	movlb	0	; () banked
  1471  002556  6F73               	movwf	(CANsendMessage@data+1)& (0+255),b
  1472  002558  0E08               	movlw	8
  1473  00255A  0100               	movlb	0	; () banked
  1474  00255C  6F74               	movwf	CANsendMessage@dataLength& (0+255),b
  1475  00255E  0EBC               	movlw	188
  1476  002560  0100               	movlb	0	; () banked
  1477  002562  6F75               	movwf	CANsendMessage@flags& (0+255),b
  1478  002564  EC5A  F006         	call	_CANsendMessage	;wreg free
  1479                           
  1480                           ;motore.c: 247: remote_frame = 0;
  1481  002568  9A47               	bcf	_remote_frame/(0+8),_remote_frame& (0+7),c
  1482  00256A                     l4868:
  1483                           
  1484                           ;motore.c: 248: }
  1485                           ;motore.c: 249: }
  1486                           ;motore.c: 250: if ((TXB0CONbits.TXABT) || (TXB1CONbits.TXABT)) {
  1487  00256A  010F               	movlb	15	; () banked
  1488  00256C  BD40               	btfsc	64,6,b	;volatile
  1489  00256E  D003               	goto	l708
  1490                           
  1491                           ; BSR set to: 15
  1492  002570  010F               	movlb	15	; () banked
  1493  002572  AD30               	btfss	48,6,b	;volatile
  1494  002574  D002               	goto	l706
  1495  002576                     l708:
  1496                           
  1497                           ; BSR set to: 15
  1498                           ;motore.c: 251: can_retry = 1;
  1499  002576  8047               	bsf	_can_retry/(0+8),_can_retry& (0+7),c
  1500                           
  1501                           ;motore.c: 252: } else {
  1502  002578  0012               	return	
  1503  00257A                     l706:
  1504                           
  1505                           ; BSR set to: 15
  1506                           ;motore.c: 253: can_retry = 0;
  1507  00257A  9047               	bcf	_can_retry/(0+8),_can_retry& (0+7),c
  1508                           
  1509                           ;motore.c: 254: if (remote_frame1 != 0) {
  1510  00257C  AC47               	btfss	_remote_frame1/(0+8),_remote_frame1& (0+7),c
  1511  00257E  D010               	goto	l710
  1512                           
  1513                           ; BSR set to: 15
  1514                           ;motore.c: 255: remote_frame = remote_frame1;
  1515  002580  AC47               	btfss	_remote_frame1/(0+8),_remote_frame1& (0+7),c
  1516  002582  D002               	goto	u6310
  1517  002584  8A47               	bsf	_remote_frame/(0+8),_remote_frame& (0+7),c
  1518  002586  D001               	goto	u6325
  1519  002588                     u6310:
  1520  002588  9A47               	bcf	_remote_frame/(0+8),_remote_frame& (0+7),c
  1521  00258A                     u6325:
  1522                           
  1523                           ;motore.c: 256: id = id1;
  1524  00258A  C011  F00D         	movff	_id1,_id
  1525  00258E  C012  F00E         	movff	_id1+1,_id+1
  1526  002592  C013  F00F         	movff	_id1+2,_id+2
  1527  002596  C014  F010         	movff	_id1+3,_id+3
  1528                           
  1529                           ;motore.c: 257: message_sent = 1;
  1530  00259A  8847               	bsf	_message_sent/(0+8),_message_sent& (0+7),c
  1531                           
  1532                           ;motore.c: 258: remote_frame1 = 0;
  1533  00259C  9C47               	bcf	_remote_frame1/(0+8),_remote_frame1& (0+7),c
  1534                           
  1535                           ;motore.c: 259: } else {
  1536  00259E  0012               	return	
  1537  0025A0                     l710:
  1538                           
  1539                           ; BSR set to: 15
  1540                           ;motore.c: 261: message_sent = 0;
  1541  0025A0  9847               	bcf	_message_sent/(0+8),_message_sent& (0+7),c
  1542                           
  1543                           ; BSR set to: 15
  1544  0025A2  0012               	return	
  1545  0025A4                     __end_of_send_data:
  1546                           	opt stack 0
  1547                           tblptru	equ	0xFF8
  1548                           tblptrh	equ	0xFF7
  1549                           tblptrl	equ	0xFF6
  1550                           tablat	equ	0xFF5
  1551                           postinc0	equ	0xFEE
  1552                           wreg	equ	0xFE8
  1553                           status	equ	0xFD8
  1554                           
  1555 ;; *************** function _delay_ms *****************
  1556 ;; Defined at:
  1557 ;;		line 61 in file "delay.c"
  1558 ;; Parameters:    Size  Location     Type
  1559 ;;  value_ms        2   28[BANK0 ] unsigned int 
  1560 ;; Auto vars:     Size  Location     Type
  1561 ;;		None
  1562 ;; Return value:  Size  Location     Type
  1563 ;;		None               void
  1564 ;; Registers used:
  1565 ;;		wreg, status,2, status,0, prodl, prodh, cstack
  1566 ;; Tracked objects:
  1567 ;;		On entry : 0/0
  1568 ;;		On exit  : 0/0
  1569 ;;		Unchanged: 0/0
  1570 ;; Data sizes:     COMRAM   BANK0   BANK1   BANK2
  1571 ;;      Params:         0       2       0       0
  1572 ;;      Locals:         0       0       0       0
  1573 ;;      Temps:          0       0       0       0
  1574 ;;      Totals:         0       2       0       0
  1575 ;;Total ram usage:        2 bytes
  1576 ;; Hardware stack levels used:    1
  1577 ;; Hardware stack levels required when called:    4
  1578 ;; This function calls:
  1579 ;;		___wmul
  1580 ;; This function is called by:
  1581 ;;		_main
  1582 ;;		_delay_s
  1583 ;; This function uses a non-reentrant model
  1584 ;;
  1585                           
  1586                           	psect	text2
  1587  0026EA                     __ptext2:
  1588                           	opt stack 0
  1589  0026EA                     _delay_ms:
  1590                           	opt stack 26
  1591                           
  1592                           ;delay.c: 73: clock_counter_reference = value_ms * delay_quartz_frequency_value;
  1593                           
  1594                           ;incstack = 0
  1595  0026EA  C0BD  F076         	movff	_delay_quartz_frequency_value,___wmul@multiplier	;volatile
  1596  0026EE  0100               	movlb	0	; () banked
  1597  0026F0  6B77               	clrf	(___wmul@multiplier+1)& (0+255),b
  1598  0026F2  C07C  F078         	movff	delay_ms@value_ms,___wmul@multiplicand
  1599  0026F6  C07D  F079         	movff	delay_ms@value_ms+1,___wmul@multiplicand+1
  1600  0026FA  EC92  F013         	call	___wmul	;wreg free
  1601  0026FE  C076  F0A5         	movff	?___wmul,_clock_counter_reference	;volatile
  1602  002702  C077  F0A6         	movff	?___wmul+1,_clock_counter_reference+1	;volatile
  1603                           
  1604                           ;delay.c: 75: while (clock_counter_reference) {
  1605  002706  D007               	goto	l573
  1606  002708                     l4724:
  1607                           
  1608                           ;delay.c: 85: _delay(240);
  1609  002708  0E50               	movlw	80
  1610  00270A                     u6607:
  1611  00270A  2EE8               	decfsz	wreg,f,c
  1612  00270C  D7FE               	goto	u6607
  1613                           
  1614                           ;delay.c: 88: clock_counter_reference--;
  1615  00270E  0100               	movlb	0	; () banked
  1616  002710  07A5               	decf	_clock_counter_reference& (0+255),f,b	;volatile
  1617  002712  A0D8               	btfss	status,0,c
  1618  002714  07A6               	decf	(_clock_counter_reference+1)& (0+255),f,b	;volatile
  1619  002716                     l573:
  1620  002716  0100               	movlb	0	; () banked
  1621  002718  51A5               	movf	_clock_counter_reference& (0+255),w,b	;volatile
  1622  00271A  0100               	movlb	0	; () banked
  1623  00271C  11A6               	iorwf	(_clock_counter_reference+1)& (0+255),w,b	;volatile
  1624  00271E  B4D8               	btfsc	status,2,c
  1625  002720  0012               	return	
  1626  002722  D7F2               	goto	l4724
  1627  002724                     __end_of_delay_ms:
  1628                           	opt stack 0
  1629                           tblptru	equ	0xFF8
  1630                           tblptrh	equ	0xFF7
  1631                           tblptrl	equ	0xFF6
  1632                           tablat	equ	0xFF5
  1633                           postinc0	equ	0xFEE
  1634                           wreg	equ	0xFE8
  1635                           status	equ	0xFD8
  1636                           
  1637 ;; *************** function _configurazione_iniziale *****************
  1638 ;; Defined at:
  1639 ;;		line 278 in file "motore.c"
  1640 ;; Parameters:    Size  Location     Type
  1641 ;;		None
  1642 ;; Auto vars:     Size  Location     Type
  1643 ;;		None
  1644 ;; Return value:  Size  Location     Type
  1645 ;;		None               void
  1646 ;; Registers used:
  1647 ;;		wreg, status,2, status,0, cstack
  1648 ;; Tracked objects:
  1649 ;;		On entry : 0/0
  1650 ;;		On exit  : 0/0
  1651 ;;		Unchanged: 0/0
  1652 ;; Data sizes:     COMRAM   BANK0   BANK1   BANK2
  1653 ;;      Params:         0       0       0       0
  1654 ;;      Locals:         0       0       0       0
  1655 ;;      Temps:          0       0       0       0
  1656 ;;      Totals:         0       0       0       0
  1657 ;;Total ram usage:        0 bytes
  1658 ;; Hardware stack levels used:    1
  1659 ;; Hardware stack levels required when called:    5
  1660 ;; This function calls:
  1661 ;;		_CANInitialize
  1662 ;; This function is called by:
  1663 ;;		_main
  1664 ;; This function uses a non-reentrant model
  1665 ;;
  1666                           
  1667                           	psect	text3
  1668  002402                     __ptext3:
  1669                           	opt stack 0
  1670  002402                     _configurazione_iniziale:
  1671                           	opt stack 25
  1672                           
  1673                           ;motore.c: 281: CANInitialize(4, 6, 5, 1, 3, CAN_CONFIG_LINE_FILTER_OFF & CAN_CONFIG_SAM
      +                          PLE_ONCE & CAN_CONFIG_ALL_VALID_MSG & CAN_CONFIG_DBL_BUFFER_ON);
  1674                           
  1675                           ; BSR set to: 0
  1676                           ;incstack = 0
  1677  002402  0E06               	movlw	6
  1678  002404  0100               	movlb	0	; () banked
  1679  002406  6F7C               	movwf	CANInitialize@phaseSeg1& (0+255),b
  1680  002408  0E05               	movlw	5
  1681  00240A  0100               	movlb	0	; () banked
  1682  00240C  6F7D               	movwf	CANInitialize@phaseSeg2& (0+255),b
  1683  00240E  0E01               	movlw	1
  1684  002410  0100               	movlb	0	; () banked
  1685  002412  6F7E               	movwf	CANInitialize@SJW& (0+255),b
  1686  002414  0E03               	movlw	3
  1687  002416  0100               	movlb	0	; () banked
  1688  002418  6F7F               	movwf	CANInitialize@BRP& (0+255),b
  1689  00241A  0E9D               	movlw	157
  1690  00241C  0100               	movlb	0	; () banked
  1691  00241E  6F80               	movwf	CANInitialize@flags& (0+255),b
  1692  002420  0E04               	movlw	4
  1693  002422  ECBF  F010         	call	_CANInitialize
  1694                           
  1695                           ;motore.c: 282: RCONbits.IPEN = 1;
  1696  002426  8ED0               	bsf	4048,7,c	;volatile
  1697                           
  1698                           ;motore.c: 283: INTCONbits.INT0IF = 0;
  1699  002428  92F2               	bcf	intcon,1,c	;volatile
  1700                           
  1701                           ;motore.c: 284: INTCONbits.INT0IE = 1;
  1702  00242A  88F2               	bsf	intcon,4,c	;volatile
  1703                           
  1704                           ;motore.c: 285: PIR3bits.RXB1IF = 0;
  1705  00242C  92A4               	bcf	4004,1,c	;volatile
  1706                           
  1707                           ;motore.c: 286: PIR3bits.RXB0IF = 0;
  1708  00242E  90A4               	bcf	4004,0,c	;volatile
  1709                           
  1710                           ;motore.c: 287: PIE3bits.RXB1IE = 1;
  1711  002430  82A3               	bsf	4003,1,c	;volatile
  1712                           
  1713                           ;motore.c: 288: PIE3bits.RXB0IE = 1;
  1714  002432  80A3               	bsf	4003,0,c	;volatile
  1715                           
  1716                           ;motore.c: 289: IPR3bits.RXB1IP = 0;
  1717  002434  92A5               	bcf	4005,1,c	;volatile
  1718                           
  1719                           ;motore.c: 290: IPR3bits.RXB0IP = 0;
  1720  002436  90A5               	bcf	4005,0,c	;volatile
  1721                           
  1722                           ;motore.c: 291: INTCONbits.GIEH = 1;
  1723  002438  8EF2               	bsf	intcon,7,c	;volatile
  1724                           
  1725                           ;motore.c: 292: INTCONbits.GIEL = 1;
  1726  00243A  8CF2               	bsf	intcon,6,c	;volatile
  1727                           
  1728                           ;motore.c: 293: INTCON2bits.INTEDG0 = 1;
  1729  00243C  8CF1               	bsf	intcon2,6,c	;volatile
  1730                           
  1731                           ;motore.c: 296: T3CON = 0x01;
  1732  00243E  0E01               	movlw	1
  1733  002440  6EB1               	movwf	4017,c	;volatile
  1734                           
  1735                           ;motore.c: 297: PIR2bits.TMR3IF = 0;
  1736  002442  92A1               	bcf	4001,1,c	;volatile
  1737                           
  1738                           ;motore.c: 298: IPR2bits.TMR3IP = 0;
  1739  002444  92A2               	bcf	4002,1,c	;volatile
  1740                           
  1741                           ;motore.c: 299: TMR3H = 0x63;
  1742  002446  0E63               	movlw	99
  1743  002448  6EB3               	movwf	4019,c	;volatile
  1744                           
  1745                           ;motore.c: 300: TMR3L = 0xC0;
  1746  00244A  0EC0               	movlw	192
  1747  00244C  6EB2               	movwf	4018,c	;volatile
  1748                           
  1749                           ;motore.c: 301: PIE2bits.TMR3IE = 1;
  1750  00244E  82A0               	bsf	4000,1,c	;volatile
  1751                           
  1752                           ;motore.c: 305: ADCON0bits.ADON = 1;
  1753  002450  80C2               	bsf	4034,0,c	;volatile
  1754                           
  1755                           ;motore.c: 306: ADCON0bits.CHS0 = 0;
  1756  002452  94C2               	bcf	4034,2,c	;volatile
  1757                           
  1758                           ;motore.c: 307: ADCON0bits.CHS1 = 0;
  1759  002454  96C2               	bcf	4034,3,c	;volatile
  1760                           
  1761                           ;motore.c: 308: ADCON0bits.CHS2 = 0;
  1762  002456  98C2               	bcf	4034,4,c	;volatile
  1763                           
  1764                           ;motore.c: 309: ADCON0bits.CHS3 = 0;
  1765  002458  9AC2               	bcf	4034,5,c	;volatile
  1766                           
  1767                           ;motore.c: 310: ADCON1bits.PCFG0 = 0;
  1768  00245A  90C1               	bcf	4033,0,c	;volatile
  1769                           
  1770                           ;motore.c: 311: ADCON1bits.PCFG1 = 1;
  1771  00245C  82C1               	bsf	4033,1,c	;volatile
  1772                           
  1773                           ;motore.c: 312: ADCON1bits.PCFG2 = 1;
  1774  00245E  84C1               	bsf	4033,2,c	;volatile
  1775                           
  1776                           ;motore.c: 313: ADCON1bits.PCFG3 = 1;
  1777  002460  86C1               	bsf	4033,3,c	;volatile
  1778                           
  1779                           ;motore.c: 314: ADCON1bits.VCFG0 = 0;
  1780  002462  98C1               	bcf	4033,4,c	;volatile
  1781                           
  1782                           ;motore.c: 315: ADCON1bits.VCFG1 = 0;
  1783  002464  9AC1               	bcf	4033,5,c	;volatile
  1784                           
  1785                           ;motore.c: 316: ADCON2bits.ADCS0 = 1;
  1786  002466  80C0               	bsf	4032,0,c	;volatile
  1787                           
  1788                           ;motore.c: 317: ADCON2bits.ADCS1 = 0;
  1789  002468  92C0               	bcf	4032,1,c	;volatile
  1790                           
  1791                           ;motore.c: 318: ADCON2bits.ADCS2 = 1;
  1792  00246A  84C0               	bsf	4032,2,c	;volatile
  1793                           
  1794                           ;motore.c: 319: ADCON2bits.ACQT0 = 0;
  1795  00246C  96C0               	bcf	4032,3,c	;volatile
  1796                           
  1797                           ;motore.c: 320: ADCON2bits.ACQT1 = 1;
  1798  00246E  88C0               	bsf	4032,4,c	;volatile
  1799                           
  1800                           ;motore.c: 321: ADCON2bits.ACQT2 = 1;
  1801  002470  8AC0               	bsf	4032,5,c	;volatile
  1802                           
  1803                           ;motore.c: 322: ADCON2bits.ADFM = 0;
  1804  002472  9EC0               	bcf	4032,7,c	;volatile
  1805                           
  1806                           ;motore.c: 326: LATA = 0x00;
  1807  002474  0E00               	movlw	0
  1808  002476  6E89               	movwf	3977,c	;volatile
  1809                           
  1810                           ;motore.c: 327: TRISA = 0b01111111;
  1811  002478  0E7F               	movlw	127
  1812  00247A  6E92               	movwf	3986,c	;volatile
  1813                           
  1814                           ;motore.c: 329: LATB = 0x00;
  1815  00247C  0E00               	movlw	0
  1816  00247E  6E8A               	movwf	3978,c	;volatile
  1817                           
  1818                           ;motore.c: 330: TRISB = 0b11111011;
  1819  002480  0EFB               	movlw	251
  1820  002482  6E93               	movwf	3987,c	;volatile
  1821                           
  1822                           ;motore.c: 332: LATC = 0x00;
  1823  002484  0E00               	movlw	0
  1824  002486  6E8B               	movwf	3979,c	;volatile
  1825                           
  1826                           ;motore.c: 333: TRISC = 0x00;
  1827  002488  0E00               	movlw	0
  1828  00248A  6E94               	movwf	3988,c	;volatile
  1829                           
  1830                           ;motore.c: 335: LATD = 0x00;
  1831  00248C  0E00               	movlw	0
  1832  00248E  6E8C               	movwf	3980,c	;volatile
  1833                           
  1834                           ;motore.c: 336: TRISD = 0x00;
  1835  002490  0E00               	movlw	0
  1836  002492  6E95               	movwf	3989,c	;volatile
  1837                           
  1838                           ;motore.c: 338: LATE = 0x00;
  1839  002494  0E00               	movlw	0
  1840  002496  6E8D               	movwf	3981,c	;volatile
  1841                           
  1842                           ;motore.c: 339: TRISE = 0xFF;
  1843  002498  6896               	setf	3990,c	;volatile
  1844  00249A  0012               	return		;funcret
  1845  00249C                     __end_of_configurazione_iniziale:
  1846                           	opt stack 0
  1847                           tblptru	equ	0xFF8
  1848                           tblptrh	equ	0xFF7
  1849                           tblptrl	equ	0xFF6
  1850                           tablat	equ	0xFF5
  1851                           intcon	equ	0xFF2
  1852                           intcon2	equ	0xFF1
  1853                           postinc0	equ	0xFEE
  1854                           wreg	equ	0xFE8
  1855                           status	equ	0xFD8
  1856                           
  1857 ;; *************** function _CANInitialize *****************
  1858 ;; Defined at:
  1859 ;;		line 218 in file "CANlib.h"
  1860 ;; Parameters:    Size  Location     Type
  1861 ;;  propSeg         1    wreg     unsigned char 
  1862 ;;  phaseSeg1       1   28[BANK0 ] unsigned char 
  1863 ;;  phaseSeg2       1   29[BANK0 ] unsigned char 
  1864 ;;  SJW             1   30[BANK0 ] unsigned char 
  1865 ;;  BRP             1   31[BANK0 ] unsigned char 
  1866 ;;  flags           1   32[BANK0 ] enum E16844
  1867 ;; Auto vars:     Size  Location     Type
  1868 ;;  propSeg         1   37[BANK0 ] unsigned char 
  1869 ;;  FilterConfig    1   39[BANK0 ] unsigned char 
  1870 ;;  FilterConfig    1   38[BANK0 ] unsigned char 
  1871 ;; Return value:  Size  Location     Type
  1872 ;;		None               void
  1873 ;; Registers used:
  1874 ;;		wreg, status,2, status,0, cstack
  1875 ;; Tracked objects:
  1876 ;;		On entry : 0/0
  1877 ;;		On exit  : 0/0
  1878 ;;		Unchanged: 0/0
  1879 ;; Data sizes:     COMRAM   BANK0   BANK1   BANK2
  1880 ;;      Params:         0       5       0       0
  1881 ;;      Locals:         0       3       0       0
  1882 ;;      Temps:          0       4       0       0
  1883 ;;      Totals:         0      12       0       0
  1884 ;;Total ram usage:       12 bytes
  1885 ;; Hardware stack levels used:    1
  1886 ;; Hardware stack levels required when called:    4
  1887 ;; This function calls:
  1888 ;;		_CANOperationMode
  1889 ;;		_CANSetFilter
  1890 ;;		_CANSetMask
  1891 ;; This function is called by:
  1892 ;;		_configurazione_iniziale
  1893 ;; This function uses a non-reentrant model
  1894 ;;
  1895                           
  1896                           	psect	text4
  1897  00217E                     __ptext4:
  1898                           	opt stack 0
  1899  00217E                     _CANInitialize:
  1900                           	opt stack 25
  1901                           
  1902                           ;incstack = 0
  1903                           ;CANInitialize@propSeg stored from wreg
  1904  00217E  0100               	movlb	0	; () banked
  1905  002180  6F85               	movwf	CANInitialize@propSeg& (0+255),b
  1906                           
  1907                           ;CANlib.h: 220: BYTE FilterConfig1;
  1908                           ;CANlib.h: 221: BYTE FilterConfig2;
  1909                           ;CANlib.h: 223: CANOperationMode(CAN_OP_MODE_CONFIG);
  1910  002182  0E80               	movlw	128
  1911  002184  ECE6  F013         	call	_CANOperationMode
  1912                           
  1913                           ;CANlib.h: 225: BRGCON1 = 0x00;
  1914  002188  0E00               	movlw	0
  1915  00218A  6E70               	movwf	3952,c	;volatile
  1916                           
  1917                           ;CANlib.h: 226: BRGCON2 = 0x00;
  1918  00218C  0E00               	movlw	0
  1919  00218E  6E71               	movwf	3953,c	;volatile
  1920                           
  1921                           ;CANlib.h: 227: BRGCON3 = 0x00;
  1922  002190  0E00               	movlw	0
  1923  002192  6E72               	movwf	3954,c	;volatile
  1924                           
  1925                           ;CANlib.h: 229: SJW= SJW << 6;
  1926  002194  0100               	movlb	0	; () banked
  1927  002196  417E               	rrncf	CANInitialize@SJW& (0+255),w,b
  1928  002198  42E8               	rrncf	wreg,f,c
  1929  00219A  0BC0               	andlw	192
  1930  00219C  0100               	movlb	0	; () banked
  1931  00219E  6F7E               	movwf	CANInitialize@SJW& (0+255),b
  1932                           
  1933                           ; BSR set to: 0
  1934                           ;CANlib.h: 230: BRGCON1 |= SJW;
  1935  0021A0  0100               	movlb	0	; () banked
  1936  0021A2  517E               	movf	CANInitialize@SJW& (0+255),w,b
  1937  0021A4  1270               	iorwf	3952,f,c	;volatile
  1938                           
  1939                           ; BSR set to: 0
  1940                           ;CANlib.h: 231: BRGCON1 |= BRP;
  1941  0021A6  0100               	movlb	0	; () banked
  1942  0021A8  517F               	movf	CANInitialize@BRP& (0+255),w,b
  1943  0021AA  1270               	iorwf	3952,f,c	;volatile
  1944                           
  1945                           ; BSR set to: 0
  1946                           ;CANlib.h: 233: BRGCON2 |= propSeg;
  1947  0021AC  0100               	movlb	0	; () banked
  1948  0021AE  5185               	movf	CANInitialize@propSeg& (0+255),w,b
  1949  0021B0  1271               	iorwf	3953,f,c	;volatile
  1950                           
  1951                           ; BSR set to: 0
  1952                           ;CANlib.h: 234: phaseSeg1 = phaseSeg1 <<3;
  1953  0021B2  0100               	movlb	0	; () banked
  1954  0021B4  397C               	swapf	CANInitialize@phaseSeg1& (0+255),w,b
  1955  0021B6  42E8               	rrncf	wreg,f,c
  1956  0021B8  0BF8               	andlw	248
  1957  0021BA  0100               	movlb	0	; () banked
  1958  0021BC  6F7C               	movwf	CANInitialize@phaseSeg1& (0+255),b
  1959                           
  1960                           ; BSR set to: 0
  1961                           ;CANlib.h: 235: BRGCON2 |= phaseSeg1;
  1962  0021BE  0100               	movlb	0	; () banked
  1963  0021C0  517C               	movf	CANInitialize@phaseSeg1& (0+255),w,b
  1964  0021C2  1271               	iorwf	3953,f,c	;volatile
  1965                           
  1966                           ; BSR set to: 0
  1967                           ;CANlib.h: 237: if ( !(flags & CAN_CONFIG_SAMPLE_BIT) )
  1968  0021C4  0100               	movlb	0	; () banked
  1969  0021C6  A580               	btfss	CANInitialize@flags& (0+255),2,b
  1970                           
  1971                           ; BSR set to: 0
  1972                           ;CANlib.h: 238: BRGCON2bits.SAM= 1;
  1973  0021C8  8C71               	bsf	3953,6,c	;volatile
  1974                           
  1975                           ; BSR set to: 0
  1976                           ;CANlib.h: 240: if ( flags & CAN_CONFIG_PHSEG2_PRG_BIT )
  1977  0021CA  0100               	movlb	0	; () banked
  1978  0021CC  B180               	btfsc	CANInitialize@flags& (0+255),0,b
  1979                           
  1980                           ; BSR set to: 0
  1981                           ;CANlib.h: 241: BRGCON2bits.SEG2PHTS = 1;
  1982  0021CE  8E71               	bsf	3953,7,c	;volatile
  1983                           
  1984                           ; BSR set to: 0
  1985                           ;CANlib.h: 243: BRGCON3 |= phaseSeg2;
  1986                           
  1987                           ; BSR set to: 0
  1988  0021D0  0100               	movlb	0	; () banked
  1989  0021D2  517D               	movf	CANInitialize@phaseSeg2& (0+255),w,b
  1990  0021D4  1272               	iorwf	3954,f,c	;volatile
  1991                           
  1992                           ; BSR set to: 0
  1993                           ;CANlib.h: 245: if ( flags & CAN_CONFIG_LINE_FILTER_BIT )
  1994  0021D6  0100               	movlb	0	; () banked
  1995  0021D8  B380               	btfsc	CANInitialize@flags& (0+255),1,b
  1996                           
  1997                           ; BSR set to: 0
  1998                           ;CANlib.h: 246: BRGCON3bits.WAKFIL = 1;
  1999  0021DA  8C72               	bsf	3954,6,c	;volatile
  2000                           
  2001                           ; BSR set to: 0
  2002                           ;CANlib.h: 251: RXB0CON = flags & CAN_CONFIG_MSG_BITS;
  2003                           
  2004                           ; BSR set to: 0
  2005  0021DC  0100               	movlb	0	; () banked
  2006  0021DE  5180               	movf	CANInitialize@flags& (0+255),w,b
  2007  0021E0  0B60               	andlw	96
  2008  0021E2  6E60               	movwf	3936,c	;volatile
  2009                           
  2010                           ;CANlib.h: 252: if ( (flags & CAN_CONFIG_DBL_BUFFER_BIT)== CAN_CONFIG_DBL_BUFFER_ON )
  2011  0021E4  0100               	movlb	0	; () banked
  2012  0021E6  5180               	movf	CANInitialize@flags& (0+255),w,b
  2013  0021E8  0B10               	andlw	16
  2014  0021EA  0AFF               	xorlw	255
  2015  0021EC  B4D8               	btfsc	status,2,c
  2016                           
  2017                           ; BSR set to: 0
  2018                           ;CANlib.h: 253: RXB0CONbits.RXB0DBEN = 1;
  2019  0021EE  8460               	bsf	3936,2,c	;volatile
  2020                           
  2021                           ; BSR set to: 0
  2022                           ;CANlib.h: 255: RXB1CON = RXB0CON;
  2023  0021F0  CF60 FF50          	movff	3936,3920	;volatile
  2024                           
  2025                           ; BSR set to: 0
  2026                           ;CANlib.h: 259: CANSetMask (CAN_MASK_B1, 0x00000000, CAN_CONFIG_XTD_MSG);
  2027  0021F4  0E00               	movlw	0
  2028  0021F6  0100               	movlb	0	; () banked
  2029  0021F8  6F6E               	movwf	CANSetMask@mask& (0+255),b
  2030  0021FA  0E00               	movlw	0
  2031  0021FC  6F6F               	movwf	(CANSetMask@mask+1)& (0+255),b
  2032  0021FE  0E00               	movlw	0
  2033  002200  6F70               	movwf	(CANSetMask@mask+2)& (0+255),b
  2034  002202  0E00               	movlw	0
  2035  002204  6F71               	movwf	(CANSetMask@mask+3)& (0+255),b
  2036  002206  0EF7               	movlw	247
  2037  002208  0100               	movlb	0	; () banked
  2038  00220A  6F72               	movwf	CANSetMask@type& (0+255),b
  2039  00220C  0E01               	movlw	1
  2040  00220E  ECF0  F00E         	call	_CANSetMask
  2041                           
  2042                           ;CANlib.h: 260: CANSetMask (CAN_MASK_B2, 0x00000000, CAN_CONFIG_XTD_MSG);
  2043  002212  0E00               	movlw	0
  2044  002214  0100               	movlb	0	; () banked
  2045  002216  6F6E               	movwf	CANSetMask@mask& (0+255),b
  2046  002218  0E00               	movlw	0
  2047  00221A  6F6F               	movwf	(CANSetMask@mask+1)& (0+255),b
  2048  00221C  0E00               	movlw	0
  2049  00221E  6F70               	movwf	(CANSetMask@mask+2)& (0+255),b
  2050  002220  0E00               	movlw	0
  2051  002222  6F71               	movwf	(CANSetMask@mask+3)& (0+255),b
  2052  002224  0EF7               	movlw	247
  2053  002226  0100               	movlb	0	; () banked
  2054  002228  6F72               	movwf	CANSetMask@type& (0+255),b
  2055  00222A  0E02               	movlw	2
  2056  00222C  ECF0  F00E         	call	_CANSetMask
  2057                           
  2058                           ;CANlib.h: 263: switch( (flags & CAN_CONFIG_MSG_BITS) | ~CAN_CONFIG_MSG_BITS )
  2059  002230  D00F               	goto	l4414
  2060  002232                     l4408:
  2061                           
  2062                           ;CANlib.h: 266: FilterConfig1 = CAN_CONFIG_XTD_MSG;
  2063  002232  0EF7               	movlw	247
  2064  002234  0100               	movlb	0	; () banked
  2065  002236  6F86               	movwf	CANInitialize@FilterConfig1& (0+255),b
  2066  002238  D007               	goto	l4410
  2067  00223A                     l362:
  2068                           
  2069                           ; BSR set to: 0
  2070                           ;CANlib.h: 271: FilterConfig1 = CAN_CONFIG_STD_MSG;
  2071  00223A  0100               	movlb	0	; () banked
  2072  00223C  6986               	setf	CANInitialize@FilterConfig1& (0+255),b
  2073                           
  2074                           ;CANlib.h: 272: FilterConfig2 = CAN_CONFIG_STD_MSG;
  2075  00223E  0100               	movlb	0	; () banked
  2076  002240  6987               	setf	CANInitialize@FilterConfig2& (0+255),b
  2077                           
  2078                           ;CANlib.h: 273: break;
  2079  002242  D028               	goto	l4416
  2080  002244                     l363:
  2081                           
  2082                           ; BSR set to: 0
  2083                           ;CANlib.h: 275: FilterConfig1 = CAN_CONFIG_STD_MSG;
  2084  002244  0100               	movlb	0	; () banked
  2085  002246  6986               	setf	CANInitialize@FilterConfig1& (0+255),b
  2086  002248                     l4410:
  2087                           
  2088                           ; BSR set to: 0
  2089                           ;CANlib.h: 276: FilterConfig2 = CAN_CONFIG_XTD_MSG;
  2090  002248  0EF7               	movlw	247
  2091  00224A  0100               	movlb	0	; () banked
  2092  00224C  6F87               	movwf	CANInitialize@FilterConfig2& (0+255),b
  2093                           
  2094                           ; BSR set to: 0
  2095                           ;CANlib.h: 278: }
  2096                           
  2097                           ;CANlib.h: 277: break;
  2098  00224E  D022               	goto	l4416
  2099  002250                     l4414:
  2100  002250  0E9F               	movlw	159
  2101  002252  0100               	movlb	0	; () banked
  2102  002254  6F81               	movwf	??_CANInitialize& (0+255),b
  2103  002256  0EFF               	movlw	255
  2104  002258  0100               	movlb	0	; () banked
  2105  00225A  6F82               	movwf	(??_CANInitialize+1)& (0+255),b
  2106  00225C  0100               	movlb	0	; () banked
  2107  00225E  5180               	movf	CANInitialize@flags& (0+255),w,b
  2108  002260  0B60               	andlw	96
  2109  002262  0100               	movlb	0	; () banked
  2110  002264  6F83               	movwf	(??_CANInitialize+2)& (0+255),b
  2111  002266  6B84               	clrf	(??_CANInitialize+3)& (0+255),b
  2112  002268  0100               	movlb	0	; () banked
  2113  00226A  5181               	movf	??_CANInitialize& (0+255),w,b
  2114  00226C  0100               	movlb	0	; () banked
  2115  00226E  1383               	iorwf	(??_CANInitialize+2)& (0+255),f,b
  2116  002270  0100               	movlb	0	; () banked
  2117  002272  5182               	movf	(??_CANInitialize+1)& (0+255),w,b
  2118  002274  0100               	movlb	0	; () banked
  2119  002276  1384               	iorwf	(??_CANInitialize+3)& (0+255),f,b
  2120                           
  2121                           ; Switch on 2 bytes has been partitioned into a top level switch of size 1, and 1 sub-sw
      +                          itches
  2122                           ; Switch size 1, requested type "space"
  2123                           ; Number of cases is 1, Range of values is 0 to 0
  2124                           ; switch strategies available:
  2125                           ; Name         Instructions Cycles
  2126                           ; simple_byte            4     3 (average)
  2127                           ;	Chosen strategy is simple_byte
  2128  002278  0100               	movlb	0	; () banked
  2129  00227A  5184               	movf	(??_CANInitialize+3)& (0+255),w,b
  2130  00227C  0A00               	xorlw	0	; case 0
  2131  00227E  A4D8               	btfss	status,2,c
  2132  002280  D7E1               	goto	l363
  2133                           
  2134                           ; BSR set to: 0
  2135                           ; Switch size 1, requested type "space"
  2136                           ; Number of cases is 2, Range of values is 191 to 223
  2137                           ; switch strategies available:
  2138                           ; Name         Instructions Cycles
  2139                           ; simple_byte            7     4 (average)
  2140                           ;	Chosen strategy is simple_byte
  2141  002282  0100               	movlb	0	; () banked
  2142  002284  5183               	movf	(??_CANInitialize+2)& (0+255),w,b
  2143  002286  0ABF               	xorlw	191	; case 191
  2144  002288  B4D8               	btfsc	status,2,c
  2145  00228A  D7D7               	goto	l362
  2146  00228C  0A60               	xorlw	96	; case 223
  2147  00228E  B4D8               	btfsc	status,2,c
  2148  002290  D7D0               	goto	l4408
  2149  002292  D7D8               	goto	l363
  2150  002294                     l4416:
  2151                           
  2152                           ; BSR set to: 0
  2153                           ;CANlib.h: 280: CANSetFilter(CAN_FILTER_B1_F1, 0, FilterConfig1);
  2154  002294  0E00               	movlw	0
  2155  002296  0100               	movlb	0	; () banked
  2156  002298  6F6E               	movwf	CANSetFilter@filter& (0+255),b
  2157  00229A  0E00               	movlw	0
  2158  00229C  6F6F               	movwf	(CANSetFilter@filter+1)& (0+255),b
  2159  00229E  0E00               	movlw	0
  2160  0022A0  6F70               	movwf	(CANSetFilter@filter+2)& (0+255),b
  2161  0022A2  0E00               	movlw	0
  2162  0022A4  6F71               	movwf	(CANSetFilter@filter+3)& (0+255),b
  2163  0022A6  C086  F072         	movff	CANInitialize@FilterConfig1,CANSetFilter@type
  2164  0022AA  0E00               	movlw	0
  2165  0022AC  ECD7  F000         	call	_CANSetFilter
  2166                           
  2167                           ;CANlib.h: 281: CANSetFilter(CAN_FILTER_B1_F2, 0, FilterConfig1);
  2168  0022B0  0E00               	movlw	0
  2169  0022B2  0100               	movlb	0	; () banked
  2170  0022B4  6F6E               	movwf	CANSetFilter@filter& (0+255),b
  2171  0022B6  0E00               	movlw	0
  2172  0022B8  6F6F               	movwf	(CANSetFilter@filter+1)& (0+255),b
  2173  0022BA  0E00               	movlw	0
  2174  0022BC  6F70               	movwf	(CANSetFilter@filter+2)& (0+255),b
  2175  0022BE  0E00               	movlw	0
  2176  0022C0  6F71               	movwf	(CANSetFilter@filter+3)& (0+255),b
  2177  0022C2  C086  F072         	movff	CANInitialize@FilterConfig1,CANSetFilter@type
  2178  0022C6  0E01               	movlw	1
  2179  0022C8  ECD7  F000         	call	_CANSetFilter
  2180                           
  2181                           ;CANlib.h: 282: CANSetFilter(CAN_FILTER_B2_F1, 0, FilterConfig2);
  2182  0022CC  0E00               	movlw	0
  2183  0022CE  0100               	movlb	0	; () banked
  2184  0022D0  6F6E               	movwf	CANSetFilter@filter& (0+255),b
  2185  0022D2  0E00               	movlw	0
  2186  0022D4  6F6F               	movwf	(CANSetFilter@filter+1)& (0+255),b
  2187  0022D6  0E00               	movlw	0
  2188  0022D8  6F70               	movwf	(CANSetFilter@filter+2)& (0+255),b
  2189  0022DA  0E00               	movlw	0
  2190  0022DC  6F71               	movwf	(CANSetFilter@filter+3)& (0+255),b
  2191  0022DE  C087  F072         	movff	CANInitialize@FilterConfig2,CANSetFilter@type
  2192  0022E2  0E02               	movlw	2
  2193  0022E4  ECD7  F000         	call	_CANSetFilter
  2194                           
  2195                           ;CANlib.h: 283: CANSetFilter(CAN_FILTER_B2_F2, 0, FilterConfig2);
  2196  0022E8  0E00               	movlw	0
  2197  0022EA  0100               	movlb	0	; () banked
  2198  0022EC  6F6E               	movwf	CANSetFilter@filter& (0+255),b
  2199  0022EE  0E00               	movlw	0
  2200  0022F0  6F6F               	movwf	(CANSetFilter@filter+1)& (0+255),b
  2201  0022F2  0E00               	movlw	0
  2202  0022F4  6F70               	movwf	(CANSetFilter@filter+2)& (0+255),b
  2203  0022F6  0E00               	movlw	0
  2204  0022F8  6F71               	movwf	(CANSetFilter@filter+3)& (0+255),b
  2205  0022FA  C087  F072         	movff	CANInitialize@FilterConfig2,CANSetFilter@type
  2206  0022FE  0E03               	movlw	3
  2207  002300  ECD7  F000         	call	_CANSetFilter
  2208                           
  2209                           ;CANlib.h: 284: CANSetFilter(CAN_FILTER_B2_F3, 0, FilterConfig2);
  2210  002304  0E00               	movlw	0
  2211  002306  0100               	movlb	0	; () banked
  2212  002308  6F6E               	movwf	CANSetFilter@filter& (0+255),b
  2213  00230A  0E00               	movlw	0
  2214  00230C  6F6F               	movwf	(CANSetFilter@filter+1)& (0+255),b
  2215  00230E  0E00               	movlw	0
  2216  002310  6F70               	movwf	(CANSetFilter@filter+2)& (0+255),b
  2217  002312  0E00               	movlw	0
  2218  002314  6F71               	movwf	(CANSetFilter@filter+3)& (0+255),b
  2219  002316  C087  F072         	movff	CANInitialize@FilterConfig2,CANSetFilter@type
  2220  00231A  0E04               	movlw	4
  2221  00231C  ECD7  F000         	call	_CANSetFilter
  2222                           
  2223                           ;CANlib.h: 285: CANSetFilter(CAN_FILTER_B2_F4, 0, FilterConfig2);
  2224  002320  0E00               	movlw	0
  2225  002322  0100               	movlb	0	; () banked
  2226  002324  6F6E               	movwf	CANSetFilter@filter& (0+255),b
  2227  002326  0E00               	movlw	0
  2228  002328  6F6F               	movwf	(CANSetFilter@filter+1)& (0+255),b
  2229  00232A  0E00               	movlw	0
  2230  00232C  6F70               	movwf	(CANSetFilter@filter+2)& (0+255),b
  2231  00232E  0E00               	movlw	0
  2232  002330  6F71               	movwf	(CANSetFilter@filter+3)& (0+255),b
  2233  002332  C087  F072         	movff	CANInitialize@FilterConfig2,CANSetFilter@type
  2234  002336  0E05               	movlw	5
  2235  002338  ECD7  F000         	call	_CANSetFilter
  2236                           
  2237                           ;CANlib.h: 287: CANOperationMode(CAN_OP_MODE_NORMAL);
  2238  00233C  0E00               	movlw	0
  2239  00233E  ECE6  F013         	call	_CANOperationMode
  2240  002342  0012               	return		;funcret
  2241  002344                     __end_of_CANInitialize:
  2242                           	opt stack 0
  2243                           tblptru	equ	0xFF8
  2244                           tblptrh	equ	0xFF7
  2245                           tblptrl	equ	0xFF6
  2246                           tablat	equ	0xFF5
  2247                           intcon	equ	0xFF2
  2248                           intcon2	equ	0xFF1
  2249                           postinc0	equ	0xFEE
  2250                           wreg	equ	0xFE8
  2251                           status	equ	0xFD8
  2252                           
  2253 ;; *************** function _CANSetMask *****************
  2254 ;; Defined at:
  2255 ;;		line 640 in file "CANlib.h"
  2256 ;; Parameters:    Size  Location     Type
  2257 ;;  numBuffer       1    wreg     enum E16878
  2258 ;;  mask            4   14[BANK0 ] unsigned long 
  2259 ;;  type            1   18[BANK0 ] enum E16844
  2260 ;; Auto vars:     Size  Location     Type
  2261 ;;  numBuffer       1   23[BANK0 ] enum E16878
  2262 ;;  tamp            4   24[BANK0 ] unsigned long 
  2263 ;; Return value:  Size  Location     Type
  2264 ;;		None               void
  2265 ;; Registers used:
  2266 ;;		wreg, status,2, status,0
  2267 ;; Tracked objects:
  2268 ;;		On entry : 0/0
  2269 ;;		On exit  : 0/0
  2270 ;;		Unchanged: 0/0
  2271 ;; Data sizes:     COMRAM   BANK0   BANK1   BANK2
  2272 ;;      Params:         0       5       0       0
  2273 ;;      Locals:         0       5       0       0
  2274 ;;      Temps:          0       4       0       0
  2275 ;;      Totals:         0      14       0       0
  2276 ;;Total ram usage:       14 bytes
  2277 ;; Hardware stack levels used:    1
  2278 ;; Hardware stack levels required when called:    3
  2279 ;; This function calls:
  2280 ;;		Nothing
  2281 ;; This function is called by:
  2282 ;;		_CANInitialize
  2283 ;; This function uses a non-reentrant model
  2284 ;;
  2285                           
  2286                           	psect	text5
  2287  001DE0                     __ptext5:
  2288                           	opt stack 0
  2289  001DE0                     _CANSetMask:
  2290                           	opt stack 25
  2291                           
  2292                           ;incstack = 0
  2293                           ;CANSetMask@numBuffer stored from wreg
  2294  001DE0  0100               	movlb	0	; () banked
  2295  001DE2  6F77               	movwf	CANSetMask@numBuffer& (0+255),b
  2296                           
  2297                           ;CANlib.h: 643: if ((numBuffer ==CAN_MASK_B1) && (type == CAN_CONFIG_STD_MSG))
  2298  001DE4  0100               	movlb	0	; () banked
  2299  001DE6  0577               	decf	CANSetMask@numBuffer& (0+255),w,b
  2300  001DE8  A4D8               	btfss	status,2,c
  2301  001DEA  D056               	goto	l3978
  2302                           
  2303                           ; BSR set to: 0
  2304  001DEC  0100               	movlb	0	; () banked
  2305  001DEE  2972               	incf	CANSetMask@type& (0+255),w,b
  2306  001DF0  A4D8               	btfss	status,2,c
  2307  001DF2  D052               	goto	l3978
  2308                           
  2309                           ; BSR set to: 0
  2310                           ;CANlib.h: 644: {
  2311                           ;CANlib.h: 645: tamp = (mask >> 3);
  2312  001DF4  C06E  F073         	movff	CANSetMask@mask,??_CANSetMask
  2313  001DF8  C06F  F074         	movff	CANSetMask@mask+1,??_CANSetMask+1
  2314  001DFC  C070  F075         	movff	CANSetMask@mask+2,??_CANSetMask+2
  2315  001E00  C071  F076         	movff	CANSetMask@mask+3,??_CANSetMask+3
  2316  001E04  0E04               	movlw	4
  2317  001E06  D006               	goto	u4700
  2318  001E08                     u4705:
  2319  001E08  0100               	movlb	0	; () banked
  2320  001E0A  90D8               	bcf	status,0,c
  2321  001E0C  3376               	rrcf	(??_CANSetMask+3)& (0+255),f,b
  2322  001E0E  3375               	rrcf	(??_CANSetMask+2)& (0+255),f,b
  2323  001E10  3374               	rrcf	(??_CANSetMask+1)& (0+255),f,b
  2324  001E12  3373               	rrcf	??_CANSetMask& (0+255),f,b
  2325  001E14                     u4700:
  2326  001E14  2EE8               	decfsz	wreg,f,c
  2327  001E16  D7F8               	goto	u4705
  2328  001E18  C073  F078         	movff	??_CANSetMask,CANSetMask@tamp
  2329  001E1C  C074  F079         	movff	??_CANSetMask+1,CANSetMask@tamp+1
  2330  001E20  C075  F07A         	movff	??_CANSetMask+2,CANSetMask@tamp+2
  2331  001E24  C076  F07B         	movff	??_CANSetMask+3,CANSetMask@tamp+3
  2332                           
  2333                           ; BSR set to: 0
  2334                           ;CANlib.h: 646: tamp = tamp & 0x000000FF;
  2335  001E28  0100               	movlb	0	; () banked
  2336  001E2A  5178               	movf	CANSetMask@tamp& (0+255),w,b
  2337  001E2C  0100               	movlb	0	; () banked
  2338  001E2E  6F78               	movwf	CANSetMask@tamp& (0+255),b
  2339  001E30  6B79               	clrf	(CANSetMask@tamp+1)& (0+255),b
  2340  001E32  6B7A               	clrf	(CANSetMask@tamp+2)& (0+255),b
  2341  001E34  6B7B               	clrf	(CANSetMask@tamp+3)& (0+255),b
  2342                           
  2343                           ; BSR set to: 0
  2344                           ;CANlib.h: 647: RXM0SIDH = (unsigned char) tamp;
  2345  001E36  C078  FF18         	movff	CANSetMask@tamp,3864	;volatile
  2346                           
  2347                           ; BSR set to: 0
  2348                           ;CANlib.h: 649: tamp = mask & 0x00000007;
  2349  001E3A  0E07               	movlw	7
  2350  001E3C  0100               	movlb	0	; () banked
  2351  001E3E  156E               	andwf	CANSetMask@mask& (0+255),w,b
  2352  001E40  0100               	movlb	0	; () banked
  2353  001E42  6F78               	movwf	CANSetMask@tamp& (0+255),b
  2354  001E44  0E00               	movlw	0
  2355  001E46  0100               	movlb	0	; () banked
  2356  001E48  156F               	andwf	(CANSetMask@mask+1)& (0+255),w,b
  2357  001E4A  0100               	movlb	0	; () banked
  2358  001E4C  6F79               	movwf	(CANSetMask@tamp+1)& (0+255),b
  2359  001E4E  0E00               	movlw	0
  2360  001E50  0100               	movlb	0	; () banked
  2361  001E52  1570               	andwf	(CANSetMask@mask+2)& (0+255),w,b
  2362  001E54  0100               	movlb	0	; () banked
  2363  001E56  6F7A               	movwf	(CANSetMask@tamp+2)& (0+255),b
  2364  001E58  0E00               	movlw	0
  2365  001E5A  0100               	movlb	0	; () banked
  2366  001E5C  1571               	andwf	(CANSetMask@mask+3)& (0+255),w,b
  2367  001E5E  0100               	movlb	0	; () banked
  2368  001E60  6F7B               	movwf	(CANSetMask@tamp+3)& (0+255),b
  2369                           
  2370                           ; BSR set to: 0
  2371                           ;CANlib.h: 650: tamp = tamp << 5;
  2372  001E62  C078  F073         	movff	CANSetMask@tamp,??_CANSetMask
  2373  001E66  C079  F074         	movff	CANSetMask@tamp+1,??_CANSetMask+1
  2374  001E6A  C07A  F075         	movff	CANSetMask@tamp+2,??_CANSetMask+2
  2375  001E6E  C07B  F076         	movff	CANSetMask@tamp+3,??_CANSetMask+3
  2376  001E72  0E05               	movlw	5
  2377  001E74                     u4715:
  2378  001E74  90D8               	bcf	status,0,c
  2379  001E76  0100               	movlb	0	; () banked
  2380  001E78  3773               	rlcf	??_CANSetMask& (0+255),f,b
  2381  001E7A  3774               	rlcf	(??_CANSetMask+1)& (0+255),f,b
  2382  001E7C  3775               	rlcf	(??_CANSetMask+2)& (0+255),f,b
  2383  001E7E  3776               	rlcf	(??_CANSetMask+3)& (0+255),f,b
  2384  001E80  2EE8               	decfsz	wreg,f,c
  2385  001E82  D7F8               	goto	u4715
  2386  001E84  C073  F078         	movff	??_CANSetMask,CANSetMask@tamp
  2387  001E88  C074  F079         	movff	??_CANSetMask+1,CANSetMask@tamp+1
  2388  001E8C  C075  F07A         	movff	??_CANSetMask+2,CANSetMask@tamp+2
  2389  001E90  C076  F07B         	movff	??_CANSetMask+3,CANSetMask@tamp+3
  2390                           
  2391                           ; BSR set to: 0
  2392                           ;CANlib.h: 651: RXM0SIDL = (unsigned char) tamp;
  2393  001E94  C078  FF19         	movff	CANSetMask@tamp,3865	;volatile
  2394  001E98                     l3978:
  2395                           
  2396                           ; BSR set to: 0
  2397                           ;CANlib.h: 652: }
  2398                           ;CANlib.h: 654: if ((numBuffer ==CAN_MASK_B2) && (type == CAN_CONFIG_STD_MSG))
  2399  001E98  0E02               	movlw	2
  2400  001E9A  0100               	movlb	0	; () banked
  2401  001E9C  1977               	xorwf	CANSetMask@numBuffer& (0+255),w,b
  2402  001E9E  A4D8               	btfss	status,2,c
  2403  001EA0  D056               	goto	l3994
  2404                           
  2405                           ; BSR set to: 0
  2406  001EA2  0100               	movlb	0	; () banked
  2407  001EA4  2972               	incf	CANSetMask@type& (0+255),w,b
  2408  001EA6  A4D8               	btfss	status,2,c
  2409  001EA8  D052               	goto	l3994
  2410                           
  2411                           ; BSR set to: 0
  2412                           ;CANlib.h: 655: {
  2413                           ;CANlib.h: 656: tamp = (mask >> 3);
  2414  001EAA  C06E  F073         	movff	CANSetMask@mask,??_CANSetMask
  2415  001EAE  C06F  F074         	movff	CANSetMask@mask+1,??_CANSetMask+1
  2416  001EB2  C070  F075         	movff	CANSetMask@mask+2,??_CANSetMask+2
  2417  001EB6  C071  F076         	movff	CANSetMask@mask+3,??_CANSetMask+3
  2418  001EBA  0E04               	movlw	4
  2419  001EBC  D006               	goto	u4740
  2420  001EBE                     u4745:
  2421  001EBE  0100               	movlb	0	; () banked
  2422  001EC0  90D8               	bcf	status,0,c
  2423  001EC2  3376               	rrcf	(??_CANSetMask+3)& (0+255),f,b
  2424  001EC4  3375               	rrcf	(??_CANSetMask+2)& (0+255),f,b
  2425  001EC6  3374               	rrcf	(??_CANSetMask+1)& (0+255),f,b
  2426  001EC8  3373               	rrcf	??_CANSetMask& (0+255),f,b
  2427  001ECA                     u4740:
  2428  001ECA  2EE8               	decfsz	wreg,f,c
  2429  001ECC  D7F8               	goto	u4745
  2430  001ECE  C073  F078         	movff	??_CANSetMask,CANSetMask@tamp
  2431  001ED2  C074  F079         	movff	??_CANSetMask+1,CANSetMask@tamp+1
  2432  001ED6  C075  F07A         	movff	??_CANSetMask+2,CANSetMask@tamp+2
  2433  001EDA  C076  F07B         	movff	??_CANSetMask+3,CANSetMask@tamp+3
  2434                           
  2435                           ; BSR set to: 0
  2436                           ;CANlib.h: 657: tamp = tamp & 0x000000FF;
  2437  001EDE  0100               	movlb	0	; () banked
  2438  001EE0  5178               	movf	CANSetMask@tamp& (0+255),w,b
  2439  001EE2  0100               	movlb	0	; () banked
  2440  001EE4  6F78               	movwf	CANSetMask@tamp& (0+255),b
  2441  001EE6  6B79               	clrf	(CANSetMask@tamp+1)& (0+255),b
  2442  001EE8  6B7A               	clrf	(CANSetMask@tamp+2)& (0+255),b
  2443  001EEA  6B7B               	clrf	(CANSetMask@tamp+3)& (0+255),b
  2444                           
  2445                           ; BSR set to: 0
  2446                           ;CANlib.h: 658: RXM1SIDH = (unsigned char) tamp;
  2447  001EEC  C078  FF1C         	movff	CANSetMask@tamp,3868	;volatile
  2448                           
  2449                           ; BSR set to: 0
  2450                           ;CANlib.h: 660: tamp = mask & 0x00000007;
  2451  001EF0  0E07               	movlw	7
  2452  001EF2  0100               	movlb	0	; () banked
  2453  001EF4  156E               	andwf	CANSetMask@mask& (0+255),w,b
  2454  001EF6  0100               	movlb	0	; () banked
  2455  001EF8  6F78               	movwf	CANSetMask@tamp& (0+255),b
  2456  001EFA  0E00               	movlw	0
  2457  001EFC  0100               	movlb	0	; () banked
  2458  001EFE  156F               	andwf	(CANSetMask@mask+1)& (0+255),w,b
  2459  001F00  0100               	movlb	0	; () banked
  2460  001F02  6F79               	movwf	(CANSetMask@tamp+1)& (0+255),b
  2461  001F04  0E00               	movlw	0
  2462  001F06  0100               	movlb	0	; () banked
  2463  001F08  1570               	andwf	(CANSetMask@mask+2)& (0+255),w,b
  2464  001F0A  0100               	movlb	0	; () banked
  2465  001F0C  6F7A               	movwf	(CANSetMask@tamp+2)& (0+255),b
  2466  001F0E  0E00               	movlw	0
  2467  001F10  0100               	movlb	0	; () banked
  2468  001F12  1571               	andwf	(CANSetMask@mask+3)& (0+255),w,b
  2469  001F14  0100               	movlb	0	; () banked
  2470  001F16  6F7B               	movwf	(CANSetMask@tamp+3)& (0+255),b
  2471                           
  2472                           ; BSR set to: 0
  2473                           ;CANlib.h: 661: tamp = tamp << 5;
  2474  001F18  C078  F073         	movff	CANSetMask@tamp,??_CANSetMask
  2475  001F1C  C079  F074         	movff	CANSetMask@tamp+1,??_CANSetMask+1
  2476  001F20  C07A  F075         	movff	CANSetMask@tamp+2,??_CANSetMask+2
  2477  001F24  C07B  F076         	movff	CANSetMask@tamp+3,??_CANSetMask+3
  2478  001F28  0E05               	movlw	5
  2479  001F2A                     u4755:
  2480  001F2A  90D8               	bcf	status,0,c
  2481  001F2C  0100               	movlb	0	; () banked
  2482  001F2E  3773               	rlcf	??_CANSetMask& (0+255),f,b
  2483  001F30  3774               	rlcf	(??_CANSetMask+1)& (0+255),f,b
  2484  001F32  3775               	rlcf	(??_CANSetMask+2)& (0+255),f,b
  2485  001F34  3776               	rlcf	(??_CANSetMask+3)& (0+255),f,b
  2486  001F36  2EE8               	decfsz	wreg,f,c
  2487  001F38  D7F8               	goto	u4755
  2488  001F3A  C073  F078         	movff	??_CANSetMask,CANSetMask@tamp
  2489  001F3E  C074  F079         	movff	??_CANSetMask+1,CANSetMask@tamp+1
  2490  001F42  C075  F07A         	movff	??_CANSetMask+2,CANSetMask@tamp+2
  2491  001F46  C076  F07B         	movff	??_CANSetMask+3,CANSetMask@tamp+3
  2492                           
  2493                           ; BSR set to: 0
  2494                           ;CANlib.h: 662: RXM1SIDL = (unsigned char) tamp;
  2495  001F4A  C078  FF1D         	movff	CANSetMask@tamp,3869	;volatile
  2496  001F4E                     l3994:
  2497                           
  2498                           ; BSR set to: 0
  2499                           ;CANlib.h: 663: }
  2500                           ;CANlib.h: 665: if ((numBuffer ==CAN_MASK_B1) && (type == CAN_CONFIG_XTD_MSG))
  2501  001F4E  0100               	movlb	0	; () banked
  2502  001F50  0577               	decf	CANSetMask@numBuffer& (0+255),w,b
  2503  001F52  A4D8               	btfss	status,2,c
  2504  001F54  D087               	goto	l4026
  2505                           
  2506                           ; BSR set to: 0
  2507  001F56  0EF7               	movlw	247
  2508  001F58  0100               	movlb	0	; () banked
  2509  001F5A  1972               	xorwf	CANSetMask@type& (0+255),w,b
  2510  001F5C  A4D8               	btfss	status,2,c
  2511  001F5E  D082               	goto	l4026
  2512                           
  2513                           ; BSR set to: 0
  2514                           ;CANlib.h: 666: {
  2515                           ;CANlib.h: 667: tamp = mask & 0x000000FF;
  2516  001F60  0100               	movlb	0	; () banked
  2517  001F62  516E               	movf	CANSetMask@mask& (0+255),w,b
  2518  001F64  0100               	movlb	0	; () banked
  2519  001F66  6F78               	movwf	CANSetMask@tamp& (0+255),b
  2520  001F68  6B79               	clrf	(CANSetMask@tamp+1)& (0+255),b
  2521  001F6A  6B7A               	clrf	(CANSetMask@tamp+2)& (0+255),b
  2522  001F6C  6B7B               	clrf	(CANSetMask@tamp+3)& (0+255),b
  2523                           
  2524                           ; BSR set to: 0
  2525                           ;CANlib.h: 668: RXM0EIDL = (unsigned char) tamp;
  2526  001F6E  C078  FF1B         	movff	CANSetMask@tamp,3867	;volatile
  2527                           
  2528                           ; BSR set to: 0
  2529                           ;CANlib.h: 670: tamp = mask & 0x0000FF00;
  2530  001F72  0E00               	movlw	0
  2531  001F74  0100               	movlb	0	; () banked
  2532  001F76  156E               	andwf	CANSetMask@mask& (0+255),w,b
  2533  001F78  0100               	movlb	0	; () banked
  2534  001F7A  6F78               	movwf	CANSetMask@tamp& (0+255),b
  2535  001F7C  0EFF               	movlw	255
  2536  001F7E  0100               	movlb	0	; () banked
  2537  001F80  156F               	andwf	(CANSetMask@mask+1)& (0+255),w,b
  2538  001F82  0100               	movlb	0	; () banked
  2539  001F84  6F79               	movwf	(CANSetMask@tamp+1)& (0+255),b
  2540  001F86  0E00               	movlw	0
  2541  001F88  0100               	movlb	0	; () banked
  2542  001F8A  1570               	andwf	(CANSetMask@mask+2)& (0+255),w,b
  2543  001F8C  0100               	movlb	0	; () banked
  2544  001F8E  6F7A               	movwf	(CANSetMask@tamp+2)& (0+255),b
  2545  001F90  0E00               	movlw	0
  2546  001F92  0100               	movlb	0	; () banked
  2547  001F94  1571               	andwf	(CANSetMask@mask+3)& (0+255),w,b
  2548  001F96  0100               	movlb	0	; () banked
  2549  001F98  6F7B               	movwf	(CANSetMask@tamp+3)& (0+255),b
  2550                           
  2551                           ; BSR set to: 0
  2552                           ;CANlib.h: 671: tamp = tamp >> 8;
  2553  001F9A  C078  F073         	movff	CANSetMask@tamp,??_CANSetMask
  2554  001F9E  C079  F074         	movff	CANSetMask@tamp+1,??_CANSetMask+1
  2555  001FA2  C07A  F075         	movff	CANSetMask@tamp+2,??_CANSetMask+2
  2556  001FA6  C07B  F076         	movff	CANSetMask@tamp+3,??_CANSetMask+3
  2557  001FAA  C074  F073         	movff	??_CANSetMask+1,??_CANSetMask
  2558  001FAE  C075  F074         	movff	??_CANSetMask+2,??_CANSetMask+1
  2559  001FB2  C076  F075         	movff	??_CANSetMask+3,??_CANSetMask+2
  2560  001FB6  0100               	movlb	0	; () banked
  2561  001FB8  6B76               	clrf	(??_CANSetMask+3)& (0+255),b
  2562  001FBA  C073  F078         	movff	??_CANSetMask,CANSetMask@tamp
  2563  001FBE  C074  F079         	movff	??_CANSetMask+1,CANSetMask@tamp+1
  2564  001FC2  C075  F07A         	movff	??_CANSetMask+2,CANSetMask@tamp+2
  2565  001FC6  C076  F07B         	movff	??_CANSetMask+3,CANSetMask@tamp+3
  2566                           
  2567                           ; BSR set to: 0
  2568                           ;CANlib.h: 672: RXM0EIDH = (unsigned char) tamp;
  2569  001FCA  C078  FF1A         	movff	CANSetMask@tamp,3866	;volatile
  2570                           
  2571                           ; BSR set to: 0
  2572                           ;CANlib.h: 674: if (mask & 0x00010000)
  2573  001FCE  0100               	movlb	0	; () banked
  2574  001FD0  A170               	btfss	(CANSetMask@mask+2)& (0+255),0,b
  2575  001FD2  D003               	goto	l436
  2576                           
  2577                           ; BSR set to: 0
  2578                           ;CANlib.h: 675: RXM0SIDLbits.EID16 = 0x01;
  2579  001FD4  010F               	movlb	15	; () banked
  2580  001FD6  8119               	bsf	25,0,b	;volatile
  2581  001FD8  D002               	goto	l437
  2582  001FDA                     l436:
  2583                           
  2584                           ; BSR set to: 0
  2585                           ;CANlib.h: 676: else
  2586                           ;CANlib.h: 677: RXM0SIDLbits.EID16 = 0x00;
  2587  001FDA  010F               	movlb	15	; () banked
  2588  001FDC  9119               	bcf	25,0,b	;volatile
  2589  001FDE                     l437:
  2590                           
  2591                           ; BSR set to: 15
  2592                           ;CANlib.h: 679: if (mask & 0x00020000)
  2593  001FDE  0100               	movlb	0	; () banked
  2594  001FE0  A370               	btfss	(CANSetMask@mask+2)& (0+255),1,b
  2595  001FE2  D003               	goto	l438
  2596                           
  2597                           ; BSR set to: 0
  2598                           ;CANlib.h: 680: RXM0SIDLbits.EID17 = 0x01;
  2599  001FE4  010F               	movlb	15	; () banked
  2600  001FE6  8319               	bsf	25,1,b	;volatile
  2601  001FE8  D002               	goto	l439
  2602  001FEA                     l438:
  2603                           
  2604                           ; BSR set to: 0
  2605                           ;CANlib.h: 681: else
  2606                           ;CANlib.h: 682: RXM0SIDLbits.EID17 = 0x00;
  2607  001FEA  010F               	movlb	15	; () banked
  2608  001FEC  9319               	bcf	25,1,b	;volatile
  2609  001FEE                     l439:
  2610                           
  2611                           ; BSR set to: 15
  2612                           ;CANlib.h: 684: if (mask & 0x00040000)
  2613  001FEE  0100               	movlb	0	; () banked
  2614  001FF0  A570               	btfss	(CANSetMask@mask+2)& (0+255),2,b
  2615  001FF2  D003               	goto	l440
  2616                           
  2617                           ; BSR set to: 0
  2618                           ;CANlib.h: 685: RXM0SIDLbits.SID0 = 0x01;
  2619  001FF4  010F               	movlb	15	; () banked
  2620  001FF6  8B19               	bsf	25,5,b	;volatile
  2621  001FF8  D002               	goto	l441
  2622  001FFA                     l440:
  2623                           
  2624                           ; BSR set to: 0
  2625                           ;CANlib.h: 686: else
  2626                           ;CANlib.h: 687: RXM0SIDLbits.SID0 = 0x00;
  2627  001FFA  010F               	movlb	15	; () banked
  2628  001FFC  9B19               	bcf	25,5,b	;volatile
  2629  001FFE                     l441:
  2630                           
  2631                           ; BSR set to: 15
  2632                           ;CANlib.h: 689: if (mask & 0x00080000)
  2633  001FFE  0100               	movlb	0	; () banked
  2634  002000  A770               	btfss	(CANSetMask@mask+2)& (0+255),3,b
  2635  002002  D003               	goto	l442
  2636                           
  2637                           ; BSR set to: 0
  2638                           ;CANlib.h: 690: RXM0SIDLbits.SID1 = 0x01;
  2639  002004  010F               	movlb	15	; () banked
  2640  002006  8D19               	bsf	25,6,b	;volatile
  2641  002008  D002               	goto	l443
  2642  00200A                     l442:
  2643                           
  2644                           ; BSR set to: 0
  2645                           ;CANlib.h: 691: else
  2646                           ;CANlib.h: 692: RXM0SIDLbits.SID1 = 0x00;
  2647  00200A  010F               	movlb	15	; () banked
  2648  00200C  9D19               	bcf	25,6,b	;volatile
  2649  00200E                     l443:
  2650                           
  2651                           ; BSR set to: 15
  2652                           ;CANlib.h: 694: if (mask & 0x00100000)
  2653  00200E  0100               	movlb	0	; () banked
  2654  002010  A970               	btfss	(CANSetMask@mask+2)& (0+255),4,b
  2655  002012  D003               	goto	l444
  2656                           
  2657                           ; BSR set to: 0
  2658                           ;CANlib.h: 695: RXM0SIDLbits.SID2 = 0x01 ;
  2659  002014  010F               	movlb	15	; () banked
  2660  002016  8F19               	bsf	25,7,b	;volatile
  2661  002018  D002               	goto	l4020
  2662  00201A                     l444:
  2663                           
  2664                           ; BSR set to: 0
  2665                           ;CANlib.h: 696: else
  2666                           ;CANlib.h: 697: RXM0SIDLbits.SID2 = 0x00 ;
  2667  00201A  010F               	movlb	15	; () banked
  2668  00201C  9F19               	bcf	25,7,b	;volatile
  2669  00201E                     l4020:
  2670                           
  2671                           ; BSR set to: 15
  2672                           ;CANlib.h: 699: tamp = (mask >> 21);
  2673  00201E  C06E  F073         	movff	CANSetMask@mask,??_CANSetMask
  2674  002022  C06F  F074         	movff	CANSetMask@mask+1,??_CANSetMask+1
  2675  002026  C070  F075         	movff	CANSetMask@mask+2,??_CANSetMask+2
  2676  00202A  C071  F076         	movff	CANSetMask@mask+3,??_CANSetMask+3
  2677  00202E  0E16               	movlw	22
  2678  002030  D006               	goto	u4830
  2679  002032                     u4835:
  2680  002032  0100               	movlb	0	; () banked
  2681  002034  90D8               	bcf	status,0,c
  2682  002036  3376               	rrcf	(??_CANSetMask+3)& (0+255),f,b
  2683  002038  3375               	rrcf	(??_CANSetMask+2)& (0+255),f,b
  2684  00203A  3374               	rrcf	(??_CANSetMask+1)& (0+255),f,b
  2685  00203C  3373               	rrcf	??_CANSetMask& (0+255),f,b
  2686  00203E                     u4830:
  2687  00203E  2EE8               	decfsz	wreg,f,c
  2688  002040  D7F8               	goto	u4835
  2689  002042  C073  F078         	movff	??_CANSetMask,CANSetMask@tamp
  2690  002046  C074  F079         	movff	??_CANSetMask+1,CANSetMask@tamp+1
  2691  00204A  C075  F07A         	movff	??_CANSetMask+2,CANSetMask@tamp+2
  2692  00204E  C076  F07B         	movff	??_CANSetMask+3,CANSetMask@tamp+3
  2693                           
  2694                           ; BSR set to: 0
  2695                           ;CANlib.h: 700: tamp = tamp & 0x000000FF;
  2696  002052  0100               	movlb	0	; () banked
  2697  002054  5178               	movf	CANSetMask@tamp& (0+255),w,b
  2698  002056  0100               	movlb	0	; () banked
  2699  002058  6F78               	movwf	CANSetMask@tamp& (0+255),b
  2700  00205A  6B79               	clrf	(CANSetMask@tamp+1)& (0+255),b
  2701  00205C  6B7A               	clrf	(CANSetMask@tamp+2)& (0+255),b
  2702  00205E  6B7B               	clrf	(CANSetMask@tamp+3)& (0+255),b
  2703                           
  2704                           ; BSR set to: 0
  2705                           ;CANlib.h: 701: RXM0SIDH = (unsigned char) tamp;
  2706  002060  C078  FF18         	movff	CANSetMask@tamp,3864	;volatile
  2707  002064                     l4026:
  2708                           
  2709                           ; BSR set to: 0
  2710                           ;CANlib.h: 702: }
  2711                           ;CANlib.h: 704: if ((numBuffer ==CAN_MASK_B2) && (type == CAN_CONFIG_XTD_MSG))
  2712  002064  0E02               	movlw	2
  2713  002066  0100               	movlb	0	; () banked
  2714  002068  1977               	xorwf	CANSetMask@numBuffer& (0+255),w,b
  2715  00206A  A4D8               	btfss	status,2,c
  2716  00206C  0012               	return	
  2717                           
  2718                           ; BSR set to: 0
  2719  00206E  0EF7               	movlw	247
  2720  002070  0100               	movlb	0	; () banked
  2721  002072  1972               	xorwf	CANSetMask@type& (0+255),w,b
  2722  002074  A4D8               	btfss	status,2,c
  2723  002076  0012               	return	
  2724                           
  2725                           ; BSR set to: 0
  2726                           ;CANlib.h: 705: {
  2727                           ;CANlib.h: 706: tamp = mask & 0x000000FF;
  2728  002078  0100               	movlb	0	; () banked
  2729  00207A  516E               	movf	CANSetMask@mask& (0+255),w,b
  2730  00207C  0100               	movlb	0	; () banked
  2731  00207E  6F78               	movwf	CANSetMask@tamp& (0+255),b
  2732  002080  6B79               	clrf	(CANSetMask@tamp+1)& (0+255),b
  2733  002082  6B7A               	clrf	(CANSetMask@tamp+2)& (0+255),b
  2734  002084  6B7B               	clrf	(CANSetMask@tamp+3)& (0+255),b
  2735                           
  2736                           ; BSR set to: 0
  2737                           ;CANlib.h: 707: RXM1EIDL = (unsigned char) tamp;
  2738  002086  C078  FF1F         	movff	CANSetMask@tamp,3871	;volatile
  2739                           
  2740                           ; BSR set to: 0
  2741                           ;CANlib.h: 709: tamp = mask & 0x0000FF00;
  2742  00208A  0E00               	movlw	0
  2743  00208C  0100               	movlb	0	; () banked
  2744  00208E  156E               	andwf	CANSetMask@mask& (0+255),w,b
  2745  002090  0100               	movlb	0	; () banked
  2746  002092  6F78               	movwf	CANSetMask@tamp& (0+255),b
  2747  002094  0EFF               	movlw	255
  2748  002096  0100               	movlb	0	; () banked
  2749  002098  156F               	andwf	(CANSetMask@mask+1)& (0+255),w,b
  2750  00209A  0100               	movlb	0	; () banked
  2751  00209C  6F79               	movwf	(CANSetMask@tamp+1)& (0+255),b
  2752  00209E  0E00               	movlw	0
  2753  0020A0  0100               	movlb	0	; () banked
  2754  0020A2  1570               	andwf	(CANSetMask@mask+2)& (0+255),w,b
  2755  0020A4  0100               	movlb	0	; () banked
  2756  0020A6  6F7A               	movwf	(CANSetMask@tamp+2)& (0+255),b
  2757  0020A8  0E00               	movlw	0
  2758  0020AA  0100               	movlb	0	; () banked
  2759  0020AC  1571               	andwf	(CANSetMask@mask+3)& (0+255),w,b
  2760  0020AE  0100               	movlb	0	; () banked
  2761  0020B0  6F7B               	movwf	(CANSetMask@tamp+3)& (0+255),b
  2762                           
  2763                           ; BSR set to: 0
  2764                           ;CANlib.h: 710: tamp = tamp >> 8;
  2765  0020B2  C078  F073         	movff	CANSetMask@tamp,??_CANSetMask
  2766  0020B6  C079  F074         	movff	CANSetMask@tamp+1,??_CANSetMask+1
  2767  0020BA  C07A  F075         	movff	CANSetMask@tamp+2,??_CANSetMask+2
  2768  0020BE  C07B  F076         	movff	CANSetMask@tamp+3,??_CANSetMask+3
  2769  0020C2  C074  F073         	movff	??_CANSetMask+1,??_CANSetMask
  2770  0020C6  C075  F074         	movff	??_CANSetMask+2,??_CANSetMask+1
  2771  0020CA  C076  F075         	movff	??_CANSetMask+3,??_CANSetMask+2
  2772  0020CE  0100               	movlb	0	; () banked
  2773  0020D0  6B76               	clrf	(??_CANSetMask+3)& (0+255),b
  2774  0020D2  C073  F078         	movff	??_CANSetMask,CANSetMask@tamp
  2775  0020D6  C074  F079         	movff	??_CANSetMask+1,CANSetMask@tamp+1
  2776  0020DA  C075  F07A         	movff	??_CANSetMask+2,CANSetMask@tamp+2
  2777  0020DE  C076  F07B         	movff	??_CANSetMask+3,CANSetMask@tamp+3
  2778                           
  2779                           ; BSR set to: 0
  2780                           ;CANlib.h: 711: RXM1EIDH = (unsigned char) tamp;
  2781  0020E2  C078  FF1E         	movff	CANSetMask@tamp,3870	;volatile
  2782                           
  2783                           ; BSR set to: 0
  2784                           ;CANlib.h: 713: if (mask & 0x00010000)
  2785  0020E6  0100               	movlb	0	; () banked
  2786  0020E8  A170               	btfss	(CANSetMask@mask+2)& (0+255),0,b
  2787  0020EA  D003               	goto	l447
  2788                           
  2789                           ; BSR set to: 0
  2790                           ;CANlib.h: 714: RXM1SIDLbits.EID16 = 0x01;
  2791  0020EC  010F               	movlb	15	; () banked
  2792  0020EE  811D               	bsf	29,0,b	;volatile
  2793  0020F0  D002               	goto	l448
  2794  0020F2                     l447:
  2795                           
  2796                           ; BSR set to: 0
  2797                           ;CANlib.h: 715: else
  2798                           ;CANlib.h: 716: RXM1SIDLbits.EID16 = 0x00;
  2799  0020F2  010F               	movlb	15	; () banked
  2800  0020F4  911D               	bcf	29,0,b	;volatile
  2801  0020F6                     l448:
  2802                           
  2803                           ; BSR set to: 15
  2804                           ;CANlib.h: 718: if (mask & 0x00020000)
  2805  0020F6  0100               	movlb	0	; () banked
  2806  0020F8  A370               	btfss	(CANSetMask@mask+2)& (0+255),1,b
  2807  0020FA  D003               	goto	l449
  2808                           
  2809                           ; BSR set to: 0
  2810                           ;CANlib.h: 719: RXM1SIDLbits.EID17 = 0x01;
  2811  0020FC  010F               	movlb	15	; () banked
  2812  0020FE  831D               	bsf	29,1,b	;volatile
  2813  002100  D002               	goto	l450
  2814  002102                     l449:
  2815                           
  2816                           ; BSR set to: 0
  2817                           ;CANlib.h: 720: else
  2818                           ;CANlib.h: 721: RXM1SIDLbits.EID17 = 0x00;
  2819  002102  010F               	movlb	15	; () banked
  2820  002104  931D               	bcf	29,1,b	;volatile
  2821  002106                     l450:
  2822                           
  2823                           ; BSR set to: 15
  2824                           ;CANlib.h: 723: if (mask & 0x00040000)
  2825  002106  0100               	movlb	0	; () banked
  2826  002108  A570               	btfss	(CANSetMask@mask+2)& (0+255),2,b
  2827  00210A  D003               	goto	l451
  2828                           
  2829                           ; BSR set to: 0
  2830                           ;CANlib.h: 724: RXM1SIDLbits.SID0 = 0x01;
  2831  00210C  010F               	movlb	15	; () banked
  2832  00210E  8B1D               	bsf	29,5,b	;volatile
  2833  002110  D002               	goto	l452
  2834  002112                     l451:
  2835                           
  2836                           ; BSR set to: 0
  2837                           ;CANlib.h: 725: else
  2838                           ;CANlib.h: 726: RXM1SIDLbits.SID0 = 0x00;
  2839  002112  010F               	movlb	15	; () banked
  2840  002114  9B1D               	bcf	29,5,b	;volatile
  2841  002116                     l452:
  2842                           
  2843                           ; BSR set to: 15
  2844                           ;CANlib.h: 728: if (mask & 0x00080000)
  2845  002116  0100               	movlb	0	; () banked
  2846  002118  A770               	btfss	(CANSetMask@mask+2)& (0+255),3,b
  2847  00211A  D003               	goto	l453
  2848                           
  2849                           ; BSR set to: 0
  2850                           ;CANlib.h: 729: RXM1SIDLbits.SID1 = 0x01;
  2851  00211C  010F               	movlb	15	; () banked
  2852  00211E  8D1D               	bsf	29,6,b	;volatile
  2853  002120  D002               	goto	l454
  2854  002122                     l453:
  2855                           
  2856                           ; BSR set to: 0
  2857                           ;CANlib.h: 730: else
  2858                           ;CANlib.h: 731: RXM1SIDLbits.SID1 = 0x00;
  2859  002122  010F               	movlb	15	; () banked
  2860  002124  9D1D               	bcf	29,6,b	;volatile
  2861  002126                     l454:
  2862                           
  2863                           ; BSR set to: 15
  2864                           ;CANlib.h: 733: if (mask & 0x00100000)
  2865  002126  0100               	movlb	0	; () banked
  2866  002128  A970               	btfss	(CANSetMask@mask+2)& (0+255),4,b
  2867  00212A  D003               	goto	l455
  2868                           
  2869                           ; BSR set to: 0
  2870                           ;CANlib.h: 734: RXM1SIDLbits.SID2 = 0x01 ;
  2871  00212C  010F               	movlb	15	; () banked
  2872  00212E  8F1D               	bsf	29,7,b	;volatile
  2873  002130  D002               	goto	l4052
  2874  002132                     l455:
  2875                           
  2876                           ; BSR set to: 0
  2877                           ;CANlib.h: 735: else
  2878                           ;CANlib.h: 736: RXM1SIDLbits.SID2 = 0x00 ;
  2879  002132  010F               	movlb	15	; () banked
  2880  002134  9F1D               	bcf	29,7,b	;volatile
  2881  002136                     l4052:
  2882                           
  2883                           ; BSR set to: 15
  2884                           ;CANlib.h: 738: tamp = (mask >> 21);
  2885  002136  C06E  F073         	movff	CANSetMask@mask,??_CANSetMask
  2886  00213A  C06F  F074         	movff	CANSetMask@mask+1,??_CANSetMask+1
  2887  00213E  C070  F075         	movff	CANSetMask@mask+2,??_CANSetMask+2
  2888  002142  C071  F076         	movff	CANSetMask@mask+3,??_CANSetMask+3
  2889  002146  0E16               	movlw	22
  2890  002148  D006               	goto	u4910
  2891  00214A                     u4915:
  2892  00214A  0100               	movlb	0	; () banked
  2893  00214C  90D8               	bcf	status,0,c
  2894  00214E  3376               	rrcf	(??_CANSetMask+3)& (0+255),f,b
  2895  002150  3375               	rrcf	(??_CANSetMask+2)& (0+255),f,b
  2896  002152  3374               	rrcf	(??_CANSetMask+1)& (0+255),f,b
  2897  002154  3373               	rrcf	??_CANSetMask& (0+255),f,b
  2898  002156                     u4910:
  2899  002156  2EE8               	decfsz	wreg,f,c
  2900  002158  D7F8               	goto	u4915
  2901  00215A  C073  F078         	movff	??_CANSetMask,CANSetMask@tamp
  2902  00215E  C074  F079         	movff	??_CANSetMask+1,CANSetMask@tamp+1
  2903  002162  C075  F07A         	movff	??_CANSetMask+2,CANSetMask@tamp+2
  2904  002166  C076  F07B         	movff	??_CANSetMask+3,CANSetMask@tamp+3
  2905                           
  2906                           ; BSR set to: 0
  2907                           ;CANlib.h: 739: tamp = tamp & 0x000000FF;
  2908  00216A  0100               	movlb	0	; () banked
  2909  00216C  5178               	movf	CANSetMask@tamp& (0+255),w,b
  2910  00216E  0100               	movlb	0	; () banked
  2911  002170  6F78               	movwf	CANSetMask@tamp& (0+255),b
  2912  002172  6B79               	clrf	(CANSetMask@tamp+1)& (0+255),b
  2913  002174  6B7A               	clrf	(CANSetMask@tamp+2)& (0+255),b
  2914  002176  6B7B               	clrf	(CANSetMask@tamp+3)& (0+255),b
  2915                           
  2916                           ; BSR set to: 0
  2917                           ;CANlib.h: 740: RXM1SIDH = (unsigned char) tamp;
  2918  002178  C078  FF1C         	movff	CANSetMask@tamp,3868	;volatile
  2919  00217C  0012               	return	
  2920  00217E                     __end_of_CANSetMask:
  2921                           	opt stack 0
  2922                           tblptru	equ	0xFF8
  2923                           tblptrh	equ	0xFF7
  2924                           tblptrl	equ	0xFF6
  2925                           tablat	equ	0xFF5
  2926                           intcon	equ	0xFF2
  2927                           intcon2	equ	0xFF1
  2928                           postinc0	equ	0xFEE
  2929                           wreg	equ	0xFE8
  2930                           status	equ	0xFD8
  2931                           
  2932 ;; *************** function _CANSetFilter *****************
  2933 ;; Defined at:
  2934 ;;		line 748 in file "CANlib.h"
  2935 ;; Parameters:    Size  Location     Type
  2936 ;;  numBuffer       1    wreg     enum E16881
  2937 ;;  filter          4   14[BANK0 ] unsigned long 
  2938 ;;  type            1   18[BANK0 ] enum E16844
  2939 ;; Auto vars:     Size  Location     Type
  2940 ;;  numBuffer       1   23[BANK0 ] enum E16881
  2941 ;;  tamp            4   24[BANK0 ] unsigned long 
  2942 ;; Return value:  Size  Location     Type
  2943 ;;		None               void
  2944 ;; Registers used:
  2945 ;;		wreg, status,2, status,0
  2946 ;; Tracked objects:
  2947 ;;		On entry : 0/0
  2948 ;;		On exit  : 0/0
  2949 ;;		Unchanged: 0/0
  2950 ;; Data sizes:     COMRAM   BANK0   BANK1   BANK2
  2951 ;;      Params:         0       5       0       0
  2952 ;;      Locals:         0       5       0       0
  2953 ;;      Temps:          0       4       0       0
  2954 ;;      Totals:         0      14       0       0
  2955 ;;Total ram usage:       14 bytes
  2956 ;; Hardware stack levels used:    1
  2957 ;; Hardware stack levels required when called:    3
  2958 ;; This function calls:
  2959 ;;		Nothing
  2960 ;; This function is called by:
  2961 ;;		_CANInitialize
  2962 ;; This function uses a non-reentrant model
  2963 ;;
  2964                           
  2965                           	psect	text6
  2966  0001AE                     __ptext6:
  2967                           	opt stack 0
  2968  0001AE                     _CANSetFilter:
  2969                           	opt stack 25
  2970                           
  2971                           ; BSR set to: 0
  2972                           ;incstack = 0
  2973                           ;CANSetFilter@numBuffer stored from wreg
  2974  0001AE  0100               	movlb	0	; () banked
  2975  0001B0  6F77               	movwf	CANSetFilter@numBuffer& (0+255),b
  2976                           
  2977                           ;CANlib.h: 750: unsigned long tamp;
  2978                           ;CANlib.h: 752: if ((numBuffer ==CAN_FILTER_B1_F1) && (type == CAN_CONFIG_STD_MSG))
  2979  0001B2  0100               	movlb	0	; () banked
  2980  0001B4  5177               	movf	CANSetFilter@numBuffer& (0+255),w,b
  2981  0001B6  0100               	movlb	0	; () banked
  2982  0001B8  A4D8               	btfss	status,2,c
  2983  0001BA  D058               	goto	l4076
  2984                           
  2985                           ; BSR set to: 0
  2986  0001BC  0100               	movlb	0	; () banked
  2987  0001BE  2972               	incf	CANSetFilter@type& (0+255),w,b
  2988  0001C0  A4D8               	btfss	status,2,c
  2989  0001C2  D054               	goto	l4076
  2990                           
  2991                           ; BSR set to: 0
  2992                           ;CANlib.h: 753: {
  2993                           ;CANlib.h: 754: RXF0SIDLbits.EXIDEN = 0x00;
  2994  0001C4  010F               	movlb	15	; () banked
  2995  0001C6  9701               	bcf	1,3,b	;volatile
  2996                           
  2997                           ; BSR set to: 15
  2998                           ;CANlib.h: 756: tamp = (filter >> 3);
  2999  0001C8  C06E  F073         	movff	CANSetFilter@filter,??_CANSetFilter
  3000  0001CC  C06F  F074         	movff	CANSetFilter@filter+1,??_CANSetFilter+1
  3001  0001D0  C070  F075         	movff	CANSetFilter@filter+2,??_CANSetFilter+2
  3002  0001D4  C071  F076         	movff	CANSetFilter@filter+3,??_CANSetFilter+3
  3003  0001D8  0E04               	movlw	4
  3004  0001DA  D006               	goto	u4940
  3005  0001DC                     u4945:
  3006  0001DC  0100               	movlb	0	; () banked
  3007  0001DE  90D8               	bcf	status,0,c
  3008  0001E0  3376               	rrcf	(??_CANSetFilter+3)& (0+255),f,b
  3009  0001E2  3375               	rrcf	(??_CANSetFilter+2)& (0+255),f,b
  3010  0001E4  3374               	rrcf	(??_CANSetFilter+1)& (0+255),f,b
  3011  0001E6  3373               	rrcf	??_CANSetFilter& (0+255),f,b
  3012  0001E8                     u4940:
  3013  0001E8  2EE8               	decfsz	wreg,f,c
  3014  0001EA  D7F8               	goto	u4945
  3015  0001EC  C073  F078         	movff	??_CANSetFilter,CANSetFilter@tamp
  3016  0001F0  C074  F079         	movff	??_CANSetFilter+1,CANSetFilter@tamp+1
  3017  0001F4  C075  F07A         	movff	??_CANSetFilter+2,CANSetFilter@tamp+2
  3018  0001F8  C076  F07B         	movff	??_CANSetFilter+3,CANSetFilter@tamp+3
  3019                           
  3020                           ; BSR set to: 0
  3021                           ;CANlib.h: 757: tamp = tamp & 0x000000FF;
  3022  0001FC  0100               	movlb	0	; () banked
  3023  0001FE  5178               	movf	CANSetFilter@tamp& (0+255),w,b
  3024  000200  0100               	movlb	0	; () banked
  3025  000202  6F78               	movwf	CANSetFilter@tamp& (0+255),b
  3026  000204  6B79               	clrf	(CANSetFilter@tamp+1)& (0+255),b
  3027  000206  6B7A               	clrf	(CANSetFilter@tamp+2)& (0+255),b
  3028  000208  6B7B               	clrf	(CANSetFilter@tamp+3)& (0+255),b
  3029                           
  3030                           ; BSR set to: 0
  3031                           ;CANlib.h: 758: RXF0SIDH = (unsigned char) tamp;
  3032  00020A  C078  FF00         	movff	CANSetFilter@tamp,3840	;volatile
  3033                           
  3034                           ; BSR set to: 0
  3035                           ;CANlib.h: 760: tamp = filter & 0x00000007;
  3036  00020E  0E07               	movlw	7
  3037  000210  0100               	movlb	0	; () banked
  3038  000212  156E               	andwf	CANSetFilter@filter& (0+255),w,b
  3039  000214  0100               	movlb	0	; () banked
  3040  000216  6F78               	movwf	CANSetFilter@tamp& (0+255),b
  3041  000218  0E00               	movlw	0
  3042  00021A  0100               	movlb	0	; () banked
  3043  00021C  156F               	andwf	(CANSetFilter@filter+1)& (0+255),w,b
  3044  00021E  0100               	movlb	0	; () banked
  3045  000220  6F79               	movwf	(CANSetFilter@tamp+1)& (0+255),b
  3046  000222  0E00               	movlw	0
  3047  000224  0100               	movlb	0	; () banked
  3048  000226  1570               	andwf	(CANSetFilter@filter+2)& (0+255),w,b
  3049  000228  0100               	movlb	0	; () banked
  3050  00022A  6F7A               	movwf	(CANSetFilter@tamp+2)& (0+255),b
  3051  00022C  0E00               	movlw	0
  3052  00022E  0100               	movlb	0	; () banked
  3053  000230  1571               	andwf	(CANSetFilter@filter+3)& (0+255),w,b
  3054  000232  0100               	movlb	0	; () banked
  3055  000234  6F7B               	movwf	(CANSetFilter@tamp+3)& (0+255),b
  3056                           
  3057                           ; BSR set to: 0
  3058                           ;CANlib.h: 761: tamp = tamp << 5;
  3059  000236  C078  F073         	movff	CANSetFilter@tamp,??_CANSetFilter
  3060  00023A  C079  F074         	movff	CANSetFilter@tamp+1,??_CANSetFilter+1
  3061  00023E  C07A  F075         	movff	CANSetFilter@tamp+2,??_CANSetFilter+2
  3062  000242  C07B  F076         	movff	CANSetFilter@tamp+3,??_CANSetFilter+3
  3063  000246  0E05               	movlw	5
  3064  000248                     u4955:
  3065  000248  90D8               	bcf	status,0,c
  3066  00024A  0100               	movlb	0	; () banked
  3067  00024C  3773               	rlcf	??_CANSetFilter& (0+255),f,b
  3068  00024E  3774               	rlcf	(??_CANSetFilter+1)& (0+255),f,b
  3069  000250  3775               	rlcf	(??_CANSetFilter+2)& (0+255),f,b
  3070  000252  3776               	rlcf	(??_CANSetFilter+3)& (0+255),f,b
  3071  000254  2EE8               	decfsz	wreg,f,c
  3072  000256  D7F8               	goto	u4955
  3073  000258  C073  F078         	movff	??_CANSetFilter,CANSetFilter@tamp
  3074  00025C  C074  F079         	movff	??_CANSetFilter+1,CANSetFilter@tamp+1
  3075  000260  C075  F07A         	movff	??_CANSetFilter+2,CANSetFilter@tamp+2
  3076  000264  C076  F07B         	movff	??_CANSetFilter+3,CANSetFilter@tamp+3
  3077                           
  3078                           ; BSR set to: 0
  3079                           ;CANlib.h: 762: RXF0SIDL = (unsigned char) tamp;
  3080  000268  C078  FF01         	movff	CANSetFilter@tamp,3841	;volatile
  3081  00026C                     l4076:
  3082                           
  3083                           ; BSR set to: 0
  3084                           ;CANlib.h: 763: }
  3085                           ;CANlib.h: 765: if ((numBuffer ==CAN_FILTER_B1_F2) && (type == CAN_CONFIG_STD_MSG))
  3086  00026C  0100               	movlb	0	; () banked
  3087  00026E  0577               	decf	CANSetFilter@numBuffer& (0+255),w,b
  3088  000270  A4D8               	btfss	status,2,c
  3089  000272  D058               	goto	l4094
  3090                           
  3091                           ; BSR set to: 0
  3092  000274  0100               	movlb	0	; () banked
  3093  000276  2972               	incf	CANSetFilter@type& (0+255),w,b
  3094  000278  A4D8               	btfss	status,2,c
  3095  00027A  D054               	goto	l4094
  3096                           
  3097                           ; BSR set to: 0
  3098                           ;CANlib.h: 766: {
  3099                           ;CANlib.h: 767: RXF1SIDLbits.EXIDEN = 0x00;
  3100  00027C  010F               	movlb	15	; () banked
  3101  00027E  9705               	bcf	5,3,b	;volatile
  3102                           
  3103                           ; BSR set to: 15
  3104                           ;CANlib.h: 769: tamp = (filter >> 3);
  3105  000280  C06E  F073         	movff	CANSetFilter@filter,??_CANSetFilter
  3106  000284  C06F  F074         	movff	CANSetFilter@filter+1,??_CANSetFilter+1
  3107  000288  C070  F075         	movff	CANSetFilter@filter+2,??_CANSetFilter+2
  3108  00028C  C071  F076         	movff	CANSetFilter@filter+3,??_CANSetFilter+3
  3109  000290  0E04               	movlw	4
  3110  000292  D006               	goto	u4980
  3111  000294                     u4985:
  3112  000294  0100               	movlb	0	; () banked
  3113  000296  90D8               	bcf	status,0,c
  3114  000298  3376               	rrcf	(??_CANSetFilter+3)& (0+255),f,b
  3115  00029A  3375               	rrcf	(??_CANSetFilter+2)& (0+255),f,b
  3116  00029C  3374               	rrcf	(??_CANSetFilter+1)& (0+255),f,b
  3117  00029E  3373               	rrcf	??_CANSetFilter& (0+255),f,b
  3118  0002A0                     u4980:
  3119  0002A0  2EE8               	decfsz	wreg,f,c
  3120  0002A2  D7F8               	goto	u4985
  3121  0002A4  C073  F078         	movff	??_CANSetFilter,CANSetFilter@tamp
  3122  0002A8  C074  F079         	movff	??_CANSetFilter+1,CANSetFilter@tamp+1
  3123  0002AC  C075  F07A         	movff	??_CANSetFilter+2,CANSetFilter@tamp+2
  3124  0002B0  C076  F07B         	movff	??_CANSetFilter+3,CANSetFilter@tamp+3
  3125                           
  3126                           ; BSR set to: 0
  3127                           ;CANlib.h: 770: tamp = tamp & 0x000000FF;
  3128  0002B4  0100               	movlb	0	; () banked
  3129  0002B6  5178               	movf	CANSetFilter@tamp& (0+255),w,b
  3130  0002B8  0100               	movlb	0	; () banked
  3131  0002BA  6F78               	movwf	CANSetFilter@tamp& (0+255),b
  3132  0002BC  6B79               	clrf	(CANSetFilter@tamp+1)& (0+255),b
  3133  0002BE  6B7A               	clrf	(CANSetFilter@tamp+2)& (0+255),b
  3134  0002C0  6B7B               	clrf	(CANSetFilter@tamp+3)& (0+255),b
  3135                           
  3136                           ; BSR set to: 0
  3137                           ;CANlib.h: 771: RXF1SIDH = (unsigned char) tamp;
  3138  0002C2  C078  FF04         	movff	CANSetFilter@tamp,3844	;volatile
  3139                           
  3140                           ; BSR set to: 0
  3141                           ;CANlib.h: 773: tamp = filter & 0x00000007;
  3142  0002C6  0E07               	movlw	7
  3143  0002C8  0100               	movlb	0	; () banked
  3144  0002CA  156E               	andwf	CANSetFilter@filter& (0+255),w,b
  3145  0002CC  0100               	movlb	0	; () banked
  3146  0002CE  6F78               	movwf	CANSetFilter@tamp& (0+255),b
  3147  0002D0  0E00               	movlw	0
  3148  0002D2  0100               	movlb	0	; () banked
  3149  0002D4  156F               	andwf	(CANSetFilter@filter+1)& (0+255),w,b
  3150  0002D6  0100               	movlb	0	; () banked
  3151  0002D8  6F79               	movwf	(CANSetFilter@tamp+1)& (0+255),b
  3152  0002DA  0E00               	movlw	0
  3153  0002DC  0100               	movlb	0	; () banked
  3154  0002DE  1570               	andwf	(CANSetFilter@filter+2)& (0+255),w,b
  3155  0002E0  0100               	movlb	0	; () banked
  3156  0002E2  6F7A               	movwf	(CANSetFilter@tamp+2)& (0+255),b
  3157  0002E4  0E00               	movlw	0
  3158  0002E6  0100               	movlb	0	; () banked
  3159  0002E8  1571               	andwf	(CANSetFilter@filter+3)& (0+255),w,b
  3160  0002EA  0100               	movlb	0	; () banked
  3161  0002EC  6F7B               	movwf	(CANSetFilter@tamp+3)& (0+255),b
  3162                           
  3163                           ; BSR set to: 0
  3164                           ;CANlib.h: 774: tamp = tamp << 5;
  3165  0002EE  C078  F073         	movff	CANSetFilter@tamp,??_CANSetFilter
  3166  0002F2  C079  F074         	movff	CANSetFilter@tamp+1,??_CANSetFilter+1
  3167  0002F6  C07A  F075         	movff	CANSetFilter@tamp+2,??_CANSetFilter+2
  3168  0002FA  C07B  F076         	movff	CANSetFilter@tamp+3,??_CANSetFilter+3
  3169  0002FE  0E05               	movlw	5
  3170  000300                     u4995:
  3171  000300  90D8               	bcf	status,0,c
  3172  000302  0100               	movlb	0	; () banked
  3173  000304  3773               	rlcf	??_CANSetFilter& (0+255),f,b
  3174  000306  3774               	rlcf	(??_CANSetFilter+1)& (0+255),f,b
  3175  000308  3775               	rlcf	(??_CANSetFilter+2)& (0+255),f,b
  3176  00030A  3776               	rlcf	(??_CANSetFilter+3)& (0+255),f,b
  3177  00030C  2EE8               	decfsz	wreg,f,c
  3178  00030E  D7F8               	goto	u4995
  3179  000310  C073  F078         	movff	??_CANSetFilter,CANSetFilter@tamp
  3180  000314  C074  F079         	movff	??_CANSetFilter+1,CANSetFilter@tamp+1
  3181  000318  C075  F07A         	movff	??_CANSetFilter+2,CANSetFilter@tamp+2
  3182  00031C  C076  F07B         	movff	??_CANSetFilter+3,CANSetFilter@tamp+3
  3183                           
  3184                           ; BSR set to: 0
  3185                           ;CANlib.h: 775: RXF1SIDL = (unsigned char) tamp;
  3186  000320  C078  FF05         	movff	CANSetFilter@tamp,3845	;volatile
  3187  000324                     l4094:
  3188                           
  3189                           ; BSR set to: 0
  3190                           ;CANlib.h: 776: }
  3191                           ;CANlib.h: 778: if ((numBuffer ==CAN_FILTER_B2_F1) && (type == CAN_CONFIG_STD_MSG))
  3192  000324  0E02               	movlw	2
  3193  000326  0100               	movlb	0	; () banked
  3194  000328  1977               	xorwf	CANSetFilter@numBuffer& (0+255),w,b
  3195  00032A  A4D8               	btfss	status,2,c
  3196  00032C  D058               	goto	l4112
  3197                           
  3198                           ; BSR set to: 0
  3199  00032E  0100               	movlb	0	; () banked
  3200  000330  2972               	incf	CANSetFilter@type& (0+255),w,b
  3201  000332  A4D8               	btfss	status,2,c
  3202  000334  D054               	goto	l4112
  3203                           
  3204                           ; BSR set to: 0
  3205                           ;CANlib.h: 779: {
  3206                           ;CANlib.h: 780: RXF2SIDLbits.EXIDEN = 0x00;
  3207  000336  010F               	movlb	15	; () banked
  3208  000338  9709               	bcf	9,3,b	;volatile
  3209                           
  3210                           ; BSR set to: 15
  3211                           ;CANlib.h: 782: tamp = (filter >> 3);
  3212  00033A  C06E  F073         	movff	CANSetFilter@filter,??_CANSetFilter
  3213  00033E  C06F  F074         	movff	CANSetFilter@filter+1,??_CANSetFilter+1
  3214  000342  C070  F075         	movff	CANSetFilter@filter+2,??_CANSetFilter+2
  3215  000346  C071  F076         	movff	CANSetFilter@filter+3,??_CANSetFilter+3
  3216  00034A  0E04               	movlw	4
  3217  00034C  D006               	goto	u5020
  3218  00034E                     u5025:
  3219  00034E  0100               	movlb	0	; () banked
  3220  000350  90D8               	bcf	status,0,c
  3221  000352  3376               	rrcf	(??_CANSetFilter+3)& (0+255),f,b
  3222  000354  3375               	rrcf	(??_CANSetFilter+2)& (0+255),f,b
  3223  000356  3374               	rrcf	(??_CANSetFilter+1)& (0+255),f,b
  3224  000358  3373               	rrcf	??_CANSetFilter& (0+255),f,b
  3225  00035A                     u5020:
  3226  00035A  2EE8               	decfsz	wreg,f,c
  3227  00035C  D7F8               	goto	u5025
  3228  00035E  C073  F078         	movff	??_CANSetFilter,CANSetFilter@tamp
  3229  000362  C074  F079         	movff	??_CANSetFilter+1,CANSetFilter@tamp+1
  3230  000366  C075  F07A         	movff	??_CANSetFilter+2,CANSetFilter@tamp+2
  3231  00036A  C076  F07B         	movff	??_CANSetFilter+3,CANSetFilter@tamp+3
  3232                           
  3233                           ; BSR set to: 0
  3234                           ;CANlib.h: 783: tamp = tamp & 0x000000FF;
  3235  00036E  0100               	movlb	0	; () banked
  3236  000370  5178               	movf	CANSetFilter@tamp& (0+255),w,b
  3237  000372  0100               	movlb	0	; () banked
  3238  000374  6F78               	movwf	CANSetFilter@tamp& (0+255),b
  3239  000376  6B79               	clrf	(CANSetFilter@tamp+1)& (0+255),b
  3240  000378  6B7A               	clrf	(CANSetFilter@tamp+2)& (0+255),b
  3241  00037A  6B7B               	clrf	(CANSetFilter@tamp+3)& (0+255),b
  3242                           
  3243                           ; BSR set to: 0
  3244                           ;CANlib.h: 784: RXF2SIDH = (unsigned char) tamp;
  3245  00037C  C078  FF08         	movff	CANSetFilter@tamp,3848	;volatile
  3246                           
  3247                           ; BSR set to: 0
  3248                           ;CANlib.h: 786: tamp = filter & 0x00000007;
  3249  000380  0E07               	movlw	7
  3250  000382  0100               	movlb	0	; () banked
  3251  000384  156E               	andwf	CANSetFilter@filter& (0+255),w,b
  3252  000386  0100               	movlb	0	; () banked
  3253  000388  6F78               	movwf	CANSetFilter@tamp& (0+255),b
  3254  00038A  0E00               	movlw	0
  3255  00038C  0100               	movlb	0	; () banked
  3256  00038E  156F               	andwf	(CANSetFilter@filter+1)& (0+255),w,b
  3257  000390  0100               	movlb	0	; () banked
  3258  000392  6F79               	movwf	(CANSetFilter@tamp+1)& (0+255),b
  3259  000394  0E00               	movlw	0
  3260  000396  0100               	movlb	0	; () banked
  3261  000398  1570               	andwf	(CANSetFilter@filter+2)& (0+255),w,b
  3262  00039A  0100               	movlb	0	; () banked
  3263  00039C  6F7A               	movwf	(CANSetFilter@tamp+2)& (0+255),b
  3264  00039E  0E00               	movlw	0
  3265  0003A0  0100               	movlb	0	; () banked
  3266  0003A2  1571               	andwf	(CANSetFilter@filter+3)& (0+255),w,b
  3267  0003A4  0100               	movlb	0	; () banked
  3268  0003A6  6F7B               	movwf	(CANSetFilter@tamp+3)& (0+255),b
  3269                           
  3270                           ; BSR set to: 0
  3271                           ;CANlib.h: 787: tamp = tamp << 5;
  3272  0003A8  C078  F073         	movff	CANSetFilter@tamp,??_CANSetFilter
  3273  0003AC  C079  F074         	movff	CANSetFilter@tamp+1,??_CANSetFilter+1
  3274  0003B0  C07A  F075         	movff	CANSetFilter@tamp+2,??_CANSetFilter+2
  3275  0003B4  C07B  F076         	movff	CANSetFilter@tamp+3,??_CANSetFilter+3
  3276  0003B8  0E05               	movlw	5
  3277  0003BA                     u5035:
  3278  0003BA  90D8               	bcf	status,0,c
  3279  0003BC  0100               	movlb	0	; () banked
  3280  0003BE  3773               	rlcf	??_CANSetFilter& (0+255),f,b
  3281  0003C0  3774               	rlcf	(??_CANSetFilter+1)& (0+255),f,b
  3282  0003C2  3775               	rlcf	(??_CANSetFilter+2)& (0+255),f,b
  3283  0003C4  3776               	rlcf	(??_CANSetFilter+3)& (0+255),f,b
  3284  0003C6  2EE8               	decfsz	wreg,f,c
  3285  0003C8  D7F8               	goto	u5035
  3286  0003CA  C073  F078         	movff	??_CANSetFilter,CANSetFilter@tamp
  3287  0003CE  C074  F079         	movff	??_CANSetFilter+1,CANSetFilter@tamp+1
  3288  0003D2  C075  F07A         	movff	??_CANSetFilter+2,CANSetFilter@tamp+2
  3289  0003D6  C076  F07B         	movff	??_CANSetFilter+3,CANSetFilter@tamp+3
  3290                           
  3291                           ; BSR set to: 0
  3292                           ;CANlib.h: 788: RXF2SIDL = (unsigned char) tamp;
  3293  0003DA  C078  FF09         	movff	CANSetFilter@tamp,3849	;volatile
  3294  0003DE                     l4112:
  3295                           
  3296                           ; BSR set to: 0
  3297                           ;CANlib.h: 789: }
  3298                           ;CANlib.h: 791: if ((numBuffer ==CAN_FILTER_B2_F2) && (type == CAN_CONFIG_STD_MSG))
  3299  0003DE  0E03               	movlw	3
  3300  0003E0  0100               	movlb	0	; () banked
  3301  0003E2  1977               	xorwf	CANSetFilter@numBuffer& (0+255),w,b
  3302  0003E4  A4D8               	btfss	status,2,c
  3303  0003E6  D058               	goto	l4130
  3304                           
  3305                           ; BSR set to: 0
  3306  0003E8  0100               	movlb	0	; () banked
  3307  0003EA  2972               	incf	CANSetFilter@type& (0+255),w,b
  3308  0003EC  A4D8               	btfss	status,2,c
  3309  0003EE  D054               	goto	l4130
  3310                           
  3311                           ; BSR set to: 0
  3312                           ;CANlib.h: 792: {
  3313                           ;CANlib.h: 793: RXF3SIDLbits.EXIDEN = 0x00;
  3314  0003F0  010F               	movlb	15	; () banked
  3315  0003F2  970D               	bcf	13,3,b	;volatile
  3316                           
  3317                           ; BSR set to: 15
  3318                           ;CANlib.h: 795: tamp = (filter >> 3);
  3319  0003F4  C06E  F073         	movff	CANSetFilter@filter,??_CANSetFilter
  3320  0003F8  C06F  F074         	movff	CANSetFilter@filter+1,??_CANSetFilter+1
  3321  0003FC  C070  F075         	movff	CANSetFilter@filter+2,??_CANSetFilter+2
  3322  000400  C071  F076         	movff	CANSetFilter@filter+3,??_CANSetFilter+3
  3323  000404  0E04               	movlw	4
  3324  000406  D006               	goto	u5060
  3325  000408                     u5065:
  3326  000408  0100               	movlb	0	; () banked
  3327  00040A  90D8               	bcf	status,0,c
  3328  00040C  3376               	rrcf	(??_CANSetFilter+3)& (0+255),f,b
  3329  00040E  3375               	rrcf	(??_CANSetFilter+2)& (0+255),f,b
  3330  000410  3374               	rrcf	(??_CANSetFilter+1)& (0+255),f,b
  3331  000412  3373               	rrcf	??_CANSetFilter& (0+255),f,b
  3332  000414                     u5060:
  3333  000414  2EE8               	decfsz	wreg,f,c
  3334  000416  D7F8               	goto	u5065
  3335  000418  C073  F078         	movff	??_CANSetFilter,CANSetFilter@tamp
  3336  00041C  C074  F079         	movff	??_CANSetFilter+1,CANSetFilter@tamp+1
  3337  000420  C075  F07A         	movff	??_CANSetFilter+2,CANSetFilter@tamp+2
  3338  000424  C076  F07B         	movff	??_CANSetFilter+3,CANSetFilter@tamp+3
  3339                           
  3340                           ; BSR set to: 0
  3341                           ;CANlib.h: 796: tamp = tamp & 0x000000FF;
  3342  000428  0100               	movlb	0	; () banked
  3343  00042A  5178               	movf	CANSetFilter@tamp& (0+255),w,b
  3344  00042C  0100               	movlb	0	; () banked
  3345  00042E  6F78               	movwf	CANSetFilter@tamp& (0+255),b
  3346  000430  6B79               	clrf	(CANSetFilter@tamp+1)& (0+255),b
  3347  000432  6B7A               	clrf	(CANSetFilter@tamp+2)& (0+255),b
  3348  000434  6B7B               	clrf	(CANSetFilter@tamp+3)& (0+255),b
  3349                           
  3350                           ; BSR set to: 0
  3351                           ;CANlib.h: 797: RXF3SIDH = (unsigned char) tamp;
  3352  000436  C078  FF0C         	movff	CANSetFilter@tamp,3852	;volatile
  3353                           
  3354                           ; BSR set to: 0
  3355                           ;CANlib.h: 799: tamp = filter & 0x00000007;
  3356  00043A  0E07               	movlw	7
  3357  00043C  0100               	movlb	0	; () banked
  3358  00043E  156E               	andwf	CANSetFilter@filter& (0+255),w,b
  3359  000440  0100               	movlb	0	; () banked
  3360  000442  6F78               	movwf	CANSetFilter@tamp& (0+255),b
  3361  000444  0E00               	movlw	0
  3362  000446  0100               	movlb	0	; () banked
  3363  000448  156F               	andwf	(CANSetFilter@filter+1)& (0+255),w,b
  3364  00044A  0100               	movlb	0	; () banked
  3365  00044C  6F79               	movwf	(CANSetFilter@tamp+1)& (0+255),b
  3366  00044E  0E00               	movlw	0
  3367  000450  0100               	movlb	0	; () banked
  3368  000452  1570               	andwf	(CANSetFilter@filter+2)& (0+255),w,b
  3369  000454  0100               	movlb	0	; () banked
  3370  000456  6F7A               	movwf	(CANSetFilter@tamp+2)& (0+255),b
  3371  000458  0E00               	movlw	0
  3372  00045A  0100               	movlb	0	; () banked
  3373  00045C  1571               	andwf	(CANSetFilter@filter+3)& (0+255),w,b
  3374  00045E  0100               	movlb	0	; () banked
  3375  000460  6F7B               	movwf	(CANSetFilter@tamp+3)& (0+255),b
  3376                           
  3377                           ; BSR set to: 0
  3378                           ;CANlib.h: 800: tamp = tamp << 5;
  3379  000462  C078  F073         	movff	CANSetFilter@tamp,??_CANSetFilter
  3380  000466  C079  F074         	movff	CANSetFilter@tamp+1,??_CANSetFilter+1
  3381  00046A  C07A  F075         	movff	CANSetFilter@tamp+2,??_CANSetFilter+2
  3382  00046E  C07B  F076         	movff	CANSetFilter@tamp+3,??_CANSetFilter+3
  3383  000472  0E05               	movlw	5
  3384  000474                     u5075:
  3385  000474  90D8               	bcf	status,0,c
  3386  000476  0100               	movlb	0	; () banked
  3387  000478  3773               	rlcf	??_CANSetFilter& (0+255),f,b
  3388  00047A  3774               	rlcf	(??_CANSetFilter+1)& (0+255),f,b
  3389  00047C  3775               	rlcf	(??_CANSetFilter+2)& (0+255),f,b
  3390  00047E  3776               	rlcf	(??_CANSetFilter+3)& (0+255),f,b
  3391  000480  2EE8               	decfsz	wreg,f,c
  3392  000482  D7F8               	goto	u5075
  3393  000484  C073  F078         	movff	??_CANSetFilter,CANSetFilter@tamp
  3394  000488  C074  F079         	movff	??_CANSetFilter+1,CANSetFilter@tamp+1
  3395  00048C  C075  F07A         	movff	??_CANSetFilter+2,CANSetFilter@tamp+2
  3396  000490  C076  F07B         	movff	??_CANSetFilter+3,CANSetFilter@tamp+3
  3397                           
  3398                           ; BSR set to: 0
  3399                           ;CANlib.h: 801: RXF3SIDL = (unsigned char) tamp;
  3400  000494  C078  FF0D         	movff	CANSetFilter@tamp,3853	;volatile
  3401  000498                     l4130:
  3402                           
  3403                           ; BSR set to: 0
  3404                           ;CANlib.h: 802: }
  3405                           ;CANlib.h: 804: if ((numBuffer ==CAN_FILTER_B2_F3) && (type == CAN_CONFIG_STD_MSG))
  3406  000498  0E04               	movlw	4
  3407  00049A  0100               	movlb	0	; () banked
  3408  00049C  1977               	xorwf	CANSetFilter@numBuffer& (0+255),w,b
  3409  00049E  A4D8               	btfss	status,2,c
  3410  0004A0  D058               	goto	l4148
  3411                           
  3412                           ; BSR set to: 0
  3413  0004A2  0100               	movlb	0	; () banked
  3414  0004A4  2972               	incf	CANSetFilter@type& (0+255),w,b
  3415  0004A6  A4D8               	btfss	status,2,c
  3416  0004A8  D054               	goto	l4148
  3417                           
  3418                           ; BSR set to: 0
  3419                           ;CANlib.h: 805: {
  3420                           ;CANlib.h: 806: RXF4SIDLbits.EXIDEN = 0x00;
  3421  0004AA  010F               	movlb	15	; () banked
  3422  0004AC  9711               	bcf	17,3,b	;volatile
  3423                           
  3424                           ; BSR set to: 15
  3425                           ;CANlib.h: 808: tamp = (filter >> 3);
  3426  0004AE  C06E  F073         	movff	CANSetFilter@filter,??_CANSetFilter
  3427  0004B2  C06F  F074         	movff	CANSetFilter@filter+1,??_CANSetFilter+1
  3428  0004B6  C070  F075         	movff	CANSetFilter@filter+2,??_CANSetFilter+2
  3429  0004BA  C071  F076         	movff	CANSetFilter@filter+3,??_CANSetFilter+3
  3430  0004BE  0E04               	movlw	4
  3431  0004C0  D006               	goto	u5100
  3432  0004C2                     u5105:
  3433  0004C2  0100               	movlb	0	; () banked
  3434  0004C4  90D8               	bcf	status,0,c
  3435  0004C6  3376               	rrcf	(??_CANSetFilter+3)& (0+255),f,b
  3436  0004C8  3375               	rrcf	(??_CANSetFilter+2)& (0+255),f,b
  3437  0004CA  3374               	rrcf	(??_CANSetFilter+1)& (0+255),f,b
  3438  0004CC  3373               	rrcf	??_CANSetFilter& (0+255),f,b
  3439  0004CE                     u5100:
  3440  0004CE  2EE8               	decfsz	wreg,f,c
  3441  0004D0  D7F8               	goto	u5105
  3442  0004D2  C073  F078         	movff	??_CANSetFilter,CANSetFilter@tamp
  3443  0004D6  C074  F079         	movff	??_CANSetFilter+1,CANSetFilter@tamp+1
  3444  0004DA  C075  F07A         	movff	??_CANSetFilter+2,CANSetFilter@tamp+2
  3445  0004DE  C076  F07B         	movff	??_CANSetFilter+3,CANSetFilter@tamp+3
  3446                           
  3447                           ; BSR set to: 0
  3448                           ;CANlib.h: 809: tamp = tamp & 0x000000FF;
  3449  0004E2  0100               	movlb	0	; () banked
  3450  0004E4  5178               	movf	CANSetFilter@tamp& (0+255),w,b
  3451  0004E6  0100               	movlb	0	; () banked
  3452  0004E8  6F78               	movwf	CANSetFilter@tamp& (0+255),b
  3453  0004EA  6B79               	clrf	(CANSetFilter@tamp+1)& (0+255),b
  3454  0004EC  6B7A               	clrf	(CANSetFilter@tamp+2)& (0+255),b
  3455  0004EE  6B7B               	clrf	(CANSetFilter@tamp+3)& (0+255),b
  3456                           
  3457                           ; BSR set to: 0
  3458                           ;CANlib.h: 810: RXF4SIDH = (unsigned char) tamp;
  3459  0004F0  C078  FF10         	movff	CANSetFilter@tamp,3856	;volatile
  3460                           
  3461                           ; BSR set to: 0
  3462                           ;CANlib.h: 812: tamp = filter & 0x00000007;
  3463  0004F4  0E07               	movlw	7
  3464  0004F6  0100               	movlb	0	; () banked
  3465  0004F8  156E               	andwf	CANSetFilter@filter& (0+255),w,b
  3466  0004FA  0100               	movlb	0	; () banked
  3467  0004FC  6F78               	movwf	CANSetFilter@tamp& (0+255),b
  3468  0004FE  0E00               	movlw	0
  3469  000500  0100               	movlb	0	; () banked
  3470  000502  156F               	andwf	(CANSetFilter@filter+1)& (0+255),w,b
  3471  000504  0100               	movlb	0	; () banked
  3472  000506  6F79               	movwf	(CANSetFilter@tamp+1)& (0+255),b
  3473  000508  0E00               	movlw	0
  3474  00050A  0100               	movlb	0	; () banked
  3475  00050C  1570               	andwf	(CANSetFilter@filter+2)& (0+255),w,b
  3476  00050E  0100               	movlb	0	; () banked
  3477  000510  6F7A               	movwf	(CANSetFilter@tamp+2)& (0+255),b
  3478  000512  0E00               	movlw	0
  3479  000514  0100               	movlb	0	; () banked
  3480  000516  1571               	andwf	(CANSetFilter@filter+3)& (0+255),w,b
  3481  000518  0100               	movlb	0	; () banked
  3482  00051A  6F7B               	movwf	(CANSetFilter@tamp+3)& (0+255),b
  3483                           
  3484                           ; BSR set to: 0
  3485                           ;CANlib.h: 813: tamp = tamp << 5;
  3486  00051C  C078  F073         	movff	CANSetFilter@tamp,??_CANSetFilter
  3487  000520  C079  F074         	movff	CANSetFilter@tamp+1,??_CANSetFilter+1
  3488  000524  C07A  F075         	movff	CANSetFilter@tamp+2,??_CANSetFilter+2
  3489  000528  C07B  F076         	movff	CANSetFilter@tamp+3,??_CANSetFilter+3
  3490  00052C  0E05               	movlw	5
  3491  00052E                     u5115:
  3492  00052E  90D8               	bcf	status,0,c
  3493  000530  0100               	movlb	0	; () banked
  3494  000532  3773               	rlcf	??_CANSetFilter& (0+255),f,b
  3495  000534  3774               	rlcf	(??_CANSetFilter+1)& (0+255),f,b
  3496  000536  3775               	rlcf	(??_CANSetFilter+2)& (0+255),f,b
  3497  000538  3776               	rlcf	(??_CANSetFilter+3)& (0+255),f,b
  3498  00053A  2EE8               	decfsz	wreg,f,c
  3499  00053C  D7F8               	goto	u5115
  3500  00053E  C073  F078         	movff	??_CANSetFilter,CANSetFilter@tamp
  3501  000542  C074  F079         	movff	??_CANSetFilter+1,CANSetFilter@tamp+1
  3502  000546  C075  F07A         	movff	??_CANSetFilter+2,CANSetFilter@tamp+2
  3503  00054A  C076  F07B         	movff	??_CANSetFilter+3,CANSetFilter@tamp+3
  3504                           
  3505                           ; BSR set to: 0
  3506                           ;CANlib.h: 814: RXF4SIDL = (unsigned char) tamp;
  3507  00054E  C078  FF11         	movff	CANSetFilter@tamp,3857	;volatile
  3508  000552                     l4148:
  3509                           
  3510                           ; BSR set to: 0
  3511                           ;CANlib.h: 815: }
  3512                           ;CANlib.h: 817: if ((numBuffer ==CAN_FILTER_B2_F4) && (type == CAN_CONFIG_STD_MSG))
  3513  000552  0E05               	movlw	5
  3514  000554  0100               	movlb	0	; () banked
  3515  000556  1977               	xorwf	CANSetFilter@numBuffer& (0+255),w,b
  3516  000558  A4D8               	btfss	status,2,c
  3517  00055A  D058               	goto	l4166
  3518                           
  3519                           ; BSR set to: 0
  3520  00055C  0100               	movlb	0	; () banked
  3521  00055E  2972               	incf	CANSetFilter@type& (0+255),w,b
  3522  000560  A4D8               	btfss	status,2,c
  3523  000562  D054               	goto	l4166
  3524                           
  3525                           ; BSR set to: 0
  3526                           ;CANlib.h: 818: {
  3527                           ;CANlib.h: 819: RXF5SIDLbits.EXIDEN = 0x00;
  3528  000564  010F               	movlb	15	; () banked
  3529  000566  9715               	bcf	21,3,b	;volatile
  3530                           
  3531                           ; BSR set to: 15
  3532                           ;CANlib.h: 821: tamp = (filter >> 3);
  3533  000568  C06E  F073         	movff	CANSetFilter@filter,??_CANSetFilter
  3534  00056C  C06F  F074         	movff	CANSetFilter@filter+1,??_CANSetFilter+1
  3535  000570  C070  F075         	movff	CANSetFilter@filter+2,??_CANSetFilter+2
  3536  000574  C071  F076         	movff	CANSetFilter@filter+3,??_CANSetFilter+3
  3537  000578  0E04               	movlw	4
  3538  00057A  D006               	goto	u5140
  3539  00057C                     u5145:
  3540  00057C  0100               	movlb	0	; () banked
  3541  00057E  90D8               	bcf	status,0,c
  3542  000580  3376               	rrcf	(??_CANSetFilter+3)& (0+255),f,b
  3543  000582  3375               	rrcf	(??_CANSetFilter+2)& (0+255),f,b
  3544  000584  3374               	rrcf	(??_CANSetFilter+1)& (0+255),f,b
  3545  000586  3373               	rrcf	??_CANSetFilter& (0+255),f,b
  3546  000588                     u5140:
  3547  000588  2EE8               	decfsz	wreg,f,c
  3548  00058A  D7F8               	goto	u5145
  3549  00058C  C073  F078         	movff	??_CANSetFilter,CANSetFilter@tamp
  3550  000590  C074  F079         	movff	??_CANSetFilter+1,CANSetFilter@tamp+1
  3551  000594  C075  F07A         	movff	??_CANSetFilter+2,CANSetFilter@tamp+2
  3552  000598  C076  F07B         	movff	??_CANSetFilter+3,CANSetFilter@tamp+3
  3553                           
  3554                           ; BSR set to: 0
  3555                           ;CANlib.h: 822: tamp = tamp & 0x000000FF;
  3556  00059C  0100               	movlb	0	; () banked
  3557  00059E  5178               	movf	CANSetFilter@tamp& (0+255),w,b
  3558  0005A0  0100               	movlb	0	; () banked
  3559  0005A2  6F78               	movwf	CANSetFilter@tamp& (0+255),b
  3560  0005A4  6B79               	clrf	(CANSetFilter@tamp+1)& (0+255),b
  3561  0005A6  6B7A               	clrf	(CANSetFilter@tamp+2)& (0+255),b
  3562  0005A8  6B7B               	clrf	(CANSetFilter@tamp+3)& (0+255),b
  3563                           
  3564                           ; BSR set to: 0
  3565                           ;CANlib.h: 823: RXF5SIDH = (unsigned char) tamp;
  3566  0005AA  C078  FF14         	movff	CANSetFilter@tamp,3860	;volatile
  3567                           
  3568                           ; BSR set to: 0
  3569                           ;CANlib.h: 825: tamp = filter & 0x00000007;
  3570  0005AE  0E07               	movlw	7
  3571  0005B0  0100               	movlb	0	; () banked
  3572  0005B2  156E               	andwf	CANSetFilter@filter& (0+255),w,b
  3573  0005B4  0100               	movlb	0	; () banked
  3574  0005B6  6F78               	movwf	CANSetFilter@tamp& (0+255),b
  3575  0005B8  0E00               	movlw	0
  3576  0005BA  0100               	movlb	0	; () banked
  3577  0005BC  156F               	andwf	(CANSetFilter@filter+1)& (0+255),w,b
  3578  0005BE  0100               	movlb	0	; () banked
  3579  0005C0  6F79               	movwf	(CANSetFilter@tamp+1)& (0+255),b
  3580  0005C2  0E00               	movlw	0
  3581  0005C4  0100               	movlb	0	; () banked
  3582  0005C6  1570               	andwf	(CANSetFilter@filter+2)& (0+255),w,b
  3583  0005C8  0100               	movlb	0	; () banked
  3584  0005CA  6F7A               	movwf	(CANSetFilter@tamp+2)& (0+255),b
  3585  0005CC  0E00               	movlw	0
  3586  0005CE  0100               	movlb	0	; () banked
  3587  0005D0  1571               	andwf	(CANSetFilter@filter+3)& (0+255),w,b
  3588  0005D2  0100               	movlb	0	; () banked
  3589  0005D4  6F7B               	movwf	(CANSetFilter@tamp+3)& (0+255),b
  3590                           
  3591                           ; BSR set to: 0
  3592                           ;CANlib.h: 826: tamp = tamp << 5;
  3593  0005D6  C078  F073         	movff	CANSetFilter@tamp,??_CANSetFilter
  3594  0005DA  C079  F074         	movff	CANSetFilter@tamp+1,??_CANSetFilter+1
  3595  0005DE  C07A  F075         	movff	CANSetFilter@tamp+2,??_CANSetFilter+2
  3596  0005E2  C07B  F076         	movff	CANSetFilter@tamp+3,??_CANSetFilter+3
  3597  0005E6  0E05               	movlw	5
  3598  0005E8                     u5155:
  3599  0005E8  90D8               	bcf	status,0,c
  3600  0005EA  0100               	movlb	0	; () banked
  3601  0005EC  3773               	rlcf	??_CANSetFilter& (0+255),f,b
  3602  0005EE  3774               	rlcf	(??_CANSetFilter+1)& (0+255),f,b
  3603  0005F0  3775               	rlcf	(??_CANSetFilter+2)& (0+255),f,b
  3604  0005F2  3776               	rlcf	(??_CANSetFilter+3)& (0+255),f,b
  3605  0005F4  2EE8               	decfsz	wreg,f,c
  3606  0005F6  D7F8               	goto	u5155
  3607  0005F8  C073  F078         	movff	??_CANSetFilter,CANSetFilter@tamp
  3608  0005FC  C074  F079         	movff	??_CANSetFilter+1,CANSetFilter@tamp+1
  3609  000600  C075  F07A         	movff	??_CANSetFilter+2,CANSetFilter@tamp+2
  3610  000604  C076  F07B         	movff	??_CANSetFilter+3,CANSetFilter@tamp+3
  3611                           
  3612                           ; BSR set to: 0
  3613                           ;CANlib.h: 827: RXF5SIDL = (unsigned char) tamp;
  3614  000608  C078  FF15         	movff	CANSetFilter@tamp,3861	;volatile
  3615  00060C                     l4166:
  3616                           
  3617                           ; BSR set to: 0
  3618                           ;CANlib.h: 828: }
  3619                           ;CANlib.h: 831: if ((numBuffer ==CAN_FILTER_B1_F1) && (type == CAN_CONFIG_XTD_MSG))
  3620  00060C  0100               	movlb	0	; () banked
  3621  00060E  5177               	movf	CANSetFilter@numBuffer& (0+255),w,b
  3622  000610  0100               	movlb	0	; () banked
  3623  000612  A4D8               	btfss	status,2,c
  3624  000614  D089               	goto	l4200
  3625                           
  3626                           ; BSR set to: 0
  3627  000616  0EF7               	movlw	247
  3628  000618  0100               	movlb	0	; () banked
  3629  00061A  1972               	xorwf	CANSetFilter@type& (0+255),w,b
  3630  00061C  A4D8               	btfss	status,2,c
  3631  00061E  D084               	goto	l4200
  3632                           
  3633                           ; BSR set to: 0
  3634                           ;CANlib.h: 832: {
  3635                           ;CANlib.h: 833: RXF0SIDLbits.EXIDEN = 0x01;
  3636  000620  010F               	movlb	15	; () banked
  3637  000622  8701               	bsf	1,3,b	;volatile
  3638                           
  3639                           ; BSR set to: 15
  3640                           ;CANlib.h: 835: tamp = filter & 0x000000FF;
  3641  000624  0100               	movlb	0	; () banked
  3642  000626  516E               	movf	CANSetFilter@filter& (0+255),w,b
  3643  000628  0100               	movlb	0	; () banked
  3644  00062A  6F78               	movwf	CANSetFilter@tamp& (0+255),b
  3645  00062C  6B79               	clrf	(CANSetFilter@tamp+1)& (0+255),b
  3646  00062E  6B7A               	clrf	(CANSetFilter@tamp+2)& (0+255),b
  3647  000630  6B7B               	clrf	(CANSetFilter@tamp+3)& (0+255),b
  3648                           
  3649                           ; BSR set to: 0
  3650                           ;CANlib.h: 836: RXF0EIDL = (unsigned char) tamp;
  3651  000632  C078  FF03         	movff	CANSetFilter@tamp,3843	;volatile
  3652                           
  3653                           ; BSR set to: 0
  3654                           ;CANlib.h: 838: tamp = filter & 0x0000FF00;
  3655  000636  0E00               	movlw	0
  3656  000638  0100               	movlb	0	; () banked
  3657  00063A  156E               	andwf	CANSetFilter@filter& (0+255),w,b
  3658  00063C  0100               	movlb	0	; () banked
  3659  00063E  6F78               	movwf	CANSetFilter@tamp& (0+255),b
  3660  000640  0EFF               	movlw	255
  3661  000642  0100               	movlb	0	; () banked
  3662  000644  156F               	andwf	(CANSetFilter@filter+1)& (0+255),w,b
  3663  000646  0100               	movlb	0	; () banked
  3664  000648  6F79               	movwf	(CANSetFilter@tamp+1)& (0+255),b
  3665  00064A  0E00               	movlw	0
  3666  00064C  0100               	movlb	0	; () banked
  3667  00064E  1570               	andwf	(CANSetFilter@filter+2)& (0+255),w,b
  3668  000650  0100               	movlb	0	; () banked
  3669  000652  6F7A               	movwf	(CANSetFilter@tamp+2)& (0+255),b
  3670  000654  0E00               	movlw	0
  3671  000656  0100               	movlb	0	; () banked
  3672  000658  1571               	andwf	(CANSetFilter@filter+3)& (0+255),w,b
  3673  00065A  0100               	movlb	0	; () banked
  3674  00065C  6F7B               	movwf	(CANSetFilter@tamp+3)& (0+255),b
  3675                           
  3676                           ; BSR set to: 0
  3677                           ;CANlib.h: 839: tamp = tamp >> 8;
  3678  00065E  C078  F073         	movff	CANSetFilter@tamp,??_CANSetFilter
  3679  000662  C079  F074         	movff	CANSetFilter@tamp+1,??_CANSetFilter+1
  3680  000666  C07A  F075         	movff	CANSetFilter@tamp+2,??_CANSetFilter+2
  3681  00066A  C07B  F076         	movff	CANSetFilter@tamp+3,??_CANSetFilter+3
  3682  00066E  C074  F073         	movff	??_CANSetFilter+1,??_CANSetFilter
  3683  000672  C075  F074         	movff	??_CANSetFilter+2,??_CANSetFilter+1
  3684  000676  C076  F075         	movff	??_CANSetFilter+3,??_CANSetFilter+2
  3685  00067A  0100               	movlb	0	; () banked
  3686  00067C  6B76               	clrf	(??_CANSetFilter+3)& (0+255),b
  3687  00067E  C073  F078         	movff	??_CANSetFilter,CANSetFilter@tamp
  3688  000682  C074  F079         	movff	??_CANSetFilter+1,CANSetFilter@tamp+1
  3689  000686  C075  F07A         	movff	??_CANSetFilter+2,CANSetFilter@tamp+2
  3690  00068A  C076  F07B         	movff	??_CANSetFilter+3,CANSetFilter@tamp+3
  3691                           
  3692                           ; BSR set to: 0
  3693                           ;CANlib.h: 840: RXF0EIDH = (unsigned char) tamp;
  3694  00068E  C078  FF02         	movff	CANSetFilter@tamp,3842	;volatile
  3695                           
  3696                           ; BSR set to: 0
  3697                           ;CANlib.h: 842: if (filter & 0x00010000)
  3698  000692  0100               	movlb	0	; () banked
  3699  000694  A170               	btfss	(CANSetFilter@filter+2)& (0+255),0,b
  3700  000696  D003               	goto	l467
  3701                           
  3702                           ; BSR set to: 0
  3703                           ;CANlib.h: 843: RXF0SIDLbits.EID16 = 0x01;
  3704  000698  010F               	movlb	15	; () banked
  3705  00069A  8101               	bsf	1,0,b	;volatile
  3706  00069C  D002               	goto	l468
  3707  00069E                     l467:
  3708                           
  3709                           ; BSR set to: 0
  3710                           ;CANlib.h: 844: else
  3711                           ;CANlib.h: 845: RXF0SIDLbits.EID16 = 0x00;
  3712  00069E  010F               	movlb	15	; () banked
  3713  0006A0  9101               	bcf	1,0,b	;volatile
  3714  0006A2                     l468:
  3715                           
  3716                           ; BSR set to: 15
  3717                           ;CANlib.h: 847: if (filter & 0x00020000)
  3718  0006A2  0100               	movlb	0	; () banked
  3719  0006A4  A370               	btfss	(CANSetFilter@filter+2)& (0+255),1,b
  3720  0006A6  D003               	goto	l469
  3721                           
  3722                           ; BSR set to: 0
  3723                           ;CANlib.h: 848: RXF0SIDLbits.EID17 = 0x01;
  3724  0006A8  010F               	movlb	15	; () banked
  3725  0006AA  8301               	bsf	1,1,b	;volatile
  3726  0006AC  D002               	goto	l470
  3727  0006AE                     l469:
  3728                           
  3729                           ; BSR set to: 0
  3730                           ;CANlib.h: 849: else
  3731                           ;CANlib.h: 850: RXF0SIDLbits.EID17 = 0x00;
  3732  0006AE  010F               	movlb	15	; () banked
  3733  0006B0  9301               	bcf	1,1,b	;volatile
  3734  0006B2                     l470:
  3735                           
  3736                           ; BSR set to: 15
  3737                           ;CANlib.h: 852: if (filter & 0x00040000)
  3738  0006B2  0100               	movlb	0	; () banked
  3739  0006B4  A570               	btfss	(CANSetFilter@filter+2)& (0+255),2,b
  3740  0006B6  D003               	goto	l471
  3741                           
  3742                           ; BSR set to: 0
  3743                           ;CANlib.h: 853: RXF0SIDLbits.SID0 = 0x01;
  3744  0006B8  010F               	movlb	15	; () banked
  3745  0006BA  8B01               	bsf	1,5,b	;volatile
  3746  0006BC  D002               	goto	l472
  3747  0006BE                     l471:
  3748                           
  3749                           ; BSR set to: 0
  3750                           ;CANlib.h: 854: else
  3751                           ;CANlib.h: 855: RXF0SIDLbits.SID0 = 0x00;
  3752  0006BE  010F               	movlb	15	; () banked
  3753  0006C0  9B01               	bcf	1,5,b	;volatile
  3754  0006C2                     l472:
  3755                           
  3756                           ; BSR set to: 15
  3757                           ;CANlib.h: 857: if (filter & 0x00080000)
  3758  0006C2  0100               	movlb	0	; () banked
  3759  0006C4  A770               	btfss	(CANSetFilter@filter+2)& (0+255),3,b
  3760  0006C6  D003               	goto	l473
  3761                           
  3762                           ; BSR set to: 0
  3763                           ;CANlib.h: 858: RXF0SIDLbits.SID1 = 0x01;
  3764  0006C8  010F               	movlb	15	; () banked
  3765  0006CA  8D01               	bsf	1,6,b	;volatile
  3766  0006CC  D002               	goto	l474
  3767  0006CE                     l473:
  3768                           
  3769                           ; BSR set to: 0
  3770                           ;CANlib.h: 859: else
  3771                           ;CANlib.h: 860: RXF0SIDLbits.SID1 = 0x00;
  3772  0006CE  010F               	movlb	15	; () banked
  3773  0006D0  9D01               	bcf	1,6,b	;volatile
  3774  0006D2                     l474:
  3775                           
  3776                           ; BSR set to: 15
  3777                           ;CANlib.h: 862: if (filter & 0x00100000)
  3778  0006D2  0100               	movlb	0	; () banked
  3779  0006D4  A970               	btfss	(CANSetFilter@filter+2)& (0+255),4,b
  3780  0006D6  D003               	goto	l475
  3781                           
  3782                           ; BSR set to: 0
  3783                           ;CANlib.h: 863: RXF0SIDLbits.SID2 = 0x01 ;
  3784  0006D8  010F               	movlb	15	; () banked
  3785  0006DA  8F01               	bsf	1,7,b	;volatile
  3786  0006DC  D002               	goto	l4194
  3787  0006DE                     l475:
  3788                           
  3789                           ; BSR set to: 0
  3790                           ;CANlib.h: 864: else
  3791                           ;CANlib.h: 865: RXF0SIDLbits.SID2 = 0x00 ;
  3792  0006DE  010F               	movlb	15	; () banked
  3793  0006E0  9F01               	bcf	1,7,b	;volatile
  3794  0006E2                     l4194:
  3795                           
  3796                           ; BSR set to: 15
  3797                           ;CANlib.h: 867: tamp = (filter >> 21);
  3798  0006E2  C06E  F073         	movff	CANSetFilter@filter,??_CANSetFilter
  3799  0006E6  C06F  F074         	movff	CANSetFilter@filter+1,??_CANSetFilter+1
  3800  0006EA  C070  F075         	movff	CANSetFilter@filter+2,??_CANSetFilter+2
  3801  0006EE  C071  F076         	movff	CANSetFilter@filter+3,??_CANSetFilter+3
  3802  0006F2  0E16               	movlw	22
  3803  0006F4  D006               	goto	u5230
  3804  0006F6                     u5235:
  3805  0006F6  0100               	movlb	0	; () banked
  3806  0006F8  90D8               	bcf	status,0,c
  3807  0006FA  3376               	rrcf	(??_CANSetFilter+3)& (0+255),f,b
  3808  0006FC  3375               	rrcf	(??_CANSetFilter+2)& (0+255),f,b
  3809  0006FE  3374               	rrcf	(??_CANSetFilter+1)& (0+255),f,b
  3810  000700  3373               	rrcf	??_CANSetFilter& (0+255),f,b
  3811  000702                     u5230:
  3812  000702  2EE8               	decfsz	wreg,f,c
  3813  000704  D7F8               	goto	u5235
  3814  000706  C073  F078         	movff	??_CANSetFilter,CANSetFilter@tamp
  3815  00070A  C074  F079         	movff	??_CANSetFilter+1,CANSetFilter@tamp+1
  3816  00070E  C075  F07A         	movff	??_CANSetFilter+2,CANSetFilter@tamp+2
  3817  000712  C076  F07B         	movff	??_CANSetFilter+3,CANSetFilter@tamp+3
  3818                           
  3819                           ; BSR set to: 0
  3820                           ;CANlib.h: 868: tamp = tamp & 0x000000FF;
  3821  000716  0100               	movlb	0	; () banked
  3822  000718  5178               	movf	CANSetFilter@tamp& (0+255),w,b
  3823  00071A  0100               	movlb	0	; () banked
  3824  00071C  6F78               	movwf	CANSetFilter@tamp& (0+255),b
  3825  00071E  6B79               	clrf	(CANSetFilter@tamp+1)& (0+255),b
  3826  000720  6B7A               	clrf	(CANSetFilter@tamp+2)& (0+255),b
  3827  000722  6B7B               	clrf	(CANSetFilter@tamp+3)& (0+255),b
  3828                           
  3829                           ; BSR set to: 0
  3830                           ;CANlib.h: 869: RXF0SIDH = (unsigned char) tamp;
  3831  000724  C078  FF00         	movff	CANSetFilter@tamp,3840	;volatile
  3832  000728                     l4200:
  3833                           
  3834                           ; BSR set to: 0
  3835                           ;CANlib.h: 870: }
  3836                           ;CANlib.h: 872: if ((numBuffer ==CAN_FILTER_B1_F2) && (type == CAN_CONFIG_XTD_MSG))
  3837  000728  0100               	movlb	0	; () banked
  3838  00072A  0577               	decf	CANSetFilter@numBuffer& (0+255),w,b
  3839  00072C  A4D8               	btfss	status,2,c
  3840  00072E  D089               	goto	l4234
  3841                           
  3842                           ; BSR set to: 0
  3843  000730  0EF7               	movlw	247
  3844  000732  0100               	movlb	0	; () banked
  3845  000734  1972               	xorwf	CANSetFilter@type& (0+255),w,b
  3846  000736  A4D8               	btfss	status,2,c
  3847  000738  D084               	goto	l4234
  3848                           
  3849                           ; BSR set to: 0
  3850                           ;CANlib.h: 873: {
  3851                           ;CANlib.h: 874: RXF1SIDLbits.EXIDEN = 0x01;
  3852  00073A  010F               	movlb	15	; () banked
  3853  00073C  8705               	bsf	5,3,b	;volatile
  3854                           
  3855                           ; BSR set to: 15
  3856                           ;CANlib.h: 876: tamp = filter & 0x000000FF;
  3857  00073E  0100               	movlb	0	; () banked
  3858  000740  516E               	movf	CANSetFilter@filter& (0+255),w,b
  3859  000742  0100               	movlb	0	; () banked
  3860  000744  6F78               	movwf	CANSetFilter@tamp& (0+255),b
  3861  000746  6B79               	clrf	(CANSetFilter@tamp+1)& (0+255),b
  3862  000748  6B7A               	clrf	(CANSetFilter@tamp+2)& (0+255),b
  3863  00074A  6B7B               	clrf	(CANSetFilter@tamp+3)& (0+255),b
  3864                           
  3865                           ; BSR set to: 0
  3866                           ;CANlib.h: 877: RXF1EIDL = (unsigned char) tamp;
  3867  00074C  C078  FF07         	movff	CANSetFilter@tamp,3847	;volatile
  3868                           
  3869                           ; BSR set to: 0
  3870                           ;CANlib.h: 879: tamp = filter & 0x0000FF00;
  3871  000750  0E00               	movlw	0
  3872  000752  0100               	movlb	0	; () banked
  3873  000754  156E               	andwf	CANSetFilter@filter& (0+255),w,b
  3874  000756  0100               	movlb	0	; () banked
  3875  000758  6F78               	movwf	CANSetFilter@tamp& (0+255),b
  3876  00075A  0EFF               	movlw	255
  3877  00075C  0100               	movlb	0	; () banked
  3878  00075E  156F               	andwf	(CANSetFilter@filter+1)& (0+255),w,b
  3879  000760  0100               	movlb	0	; () banked
  3880  000762  6F79               	movwf	(CANSetFilter@tamp+1)& (0+255),b
  3881  000764  0E00               	movlw	0
  3882  000766  0100               	movlb	0	; () banked
  3883  000768  1570               	andwf	(CANSetFilter@filter+2)& (0+255),w,b
  3884  00076A  0100               	movlb	0	; () banked
  3885  00076C  6F7A               	movwf	(CANSetFilter@tamp+2)& (0+255),b
  3886  00076E  0E00               	movlw	0
  3887  000770  0100               	movlb	0	; () banked
  3888  000772  1571               	andwf	(CANSetFilter@filter+3)& (0+255),w,b
  3889  000774  0100               	movlb	0	; () banked
  3890  000776  6F7B               	movwf	(CANSetFilter@tamp+3)& (0+255),b
  3891                           
  3892                           ; BSR set to: 0
  3893                           ;CANlib.h: 880: tamp = tamp >> 8;
  3894  000778  C078  F073         	movff	CANSetFilter@tamp,??_CANSetFilter
  3895  00077C  C079  F074         	movff	CANSetFilter@tamp+1,??_CANSetFilter+1
  3896  000780  C07A  F075         	movff	CANSetFilter@tamp+2,??_CANSetFilter+2
  3897  000784  C07B  F076         	movff	CANSetFilter@tamp+3,??_CANSetFilter+3
  3898  000788  C074  F073         	movff	??_CANSetFilter+1,??_CANSetFilter
  3899  00078C  C075  F074         	movff	??_CANSetFilter+2,??_CANSetFilter+1
  3900  000790  C076  F075         	movff	??_CANSetFilter+3,??_CANSetFilter+2
  3901  000794  0100               	movlb	0	; () banked
  3902  000796  6B76               	clrf	(??_CANSetFilter+3)& (0+255),b
  3903  000798  C073  F078         	movff	??_CANSetFilter,CANSetFilter@tamp
  3904  00079C  C074  F079         	movff	??_CANSetFilter+1,CANSetFilter@tamp+1
  3905  0007A0  C075  F07A         	movff	??_CANSetFilter+2,CANSetFilter@tamp+2
  3906  0007A4  C076  F07B         	movff	??_CANSetFilter+3,CANSetFilter@tamp+3
  3907                           
  3908                           ; BSR set to: 0
  3909                           ;CANlib.h: 881: RXF1EIDH = (unsigned char) tamp;
  3910  0007A8  C078  FF06         	movff	CANSetFilter@tamp,3846	;volatile
  3911                           
  3912                           ; BSR set to: 0
  3913                           ;CANlib.h: 883: if (filter & 0x00010000)
  3914  0007AC  0100               	movlb	0	; () banked
  3915  0007AE  A170               	btfss	(CANSetFilter@filter+2)& (0+255),0,b
  3916  0007B0  D003               	goto	l478
  3917                           
  3918                           ; BSR set to: 0
  3919                           ;CANlib.h: 884: RXF1SIDLbits.EID16 = 0x01;
  3920  0007B2  010F               	movlb	15	; () banked
  3921  0007B4  8105               	bsf	5,0,b	;volatile
  3922  0007B6  D002               	goto	l479
  3923  0007B8                     l478:
  3924                           
  3925                           ; BSR set to: 0
  3926                           ;CANlib.h: 885: else
  3927                           ;CANlib.h: 886: RXF1SIDLbits.EID16 = 0x00;
  3928  0007B8  010F               	movlb	15	; () banked
  3929  0007BA  9105               	bcf	5,0,b	;volatile
  3930  0007BC                     l479:
  3931                           
  3932                           ; BSR set to: 15
  3933                           ;CANlib.h: 888: if (filter & 0x00020000)
  3934  0007BC  0100               	movlb	0	; () banked
  3935  0007BE  A370               	btfss	(CANSetFilter@filter+2)& (0+255),1,b
  3936  0007C0  D003               	goto	l480
  3937                           
  3938                           ; BSR set to: 0
  3939                           ;CANlib.h: 889: RXF1SIDLbits.EID17 = 0x01;
  3940  0007C2  010F               	movlb	15	; () banked
  3941  0007C4  8305               	bsf	5,1,b	;volatile
  3942  0007C6  D002               	goto	l481
  3943  0007C8                     l480:
  3944                           
  3945                           ; BSR set to: 0
  3946                           ;CANlib.h: 890: else
  3947                           ;CANlib.h: 891: RXF1SIDLbits.EID17 = 0x00;
  3948  0007C8  010F               	movlb	15	; () banked
  3949  0007CA  9305               	bcf	5,1,b	;volatile
  3950  0007CC                     l481:
  3951                           
  3952                           ; BSR set to: 15
  3953                           ;CANlib.h: 893: if (filter & 0x00040000)
  3954  0007CC  0100               	movlb	0	; () banked
  3955  0007CE  A570               	btfss	(CANSetFilter@filter+2)& (0+255),2,b
  3956  0007D0  D003               	goto	l482
  3957                           
  3958                           ; BSR set to: 0
  3959                           ;CANlib.h: 894: RXF1SIDLbits.SID0 = 0x01;
  3960  0007D2  010F               	movlb	15	; () banked
  3961  0007D4  8B05               	bsf	5,5,b	;volatile
  3962  0007D6  D002               	goto	l483
  3963  0007D8                     l482:
  3964                           
  3965                           ; BSR set to: 0
  3966                           ;CANlib.h: 895: else
  3967                           ;CANlib.h: 896: RXF1SIDLbits.SID0 = 0x00;
  3968  0007D8  010F               	movlb	15	; () banked
  3969  0007DA  9B05               	bcf	5,5,b	;volatile
  3970  0007DC                     l483:
  3971                           
  3972                           ; BSR set to: 15
  3973                           ;CANlib.h: 898: if (filter & 0x00080000)
  3974  0007DC  0100               	movlb	0	; () banked
  3975  0007DE  A770               	btfss	(CANSetFilter@filter+2)& (0+255),3,b
  3976  0007E0  D003               	goto	l484
  3977                           
  3978                           ; BSR set to: 0
  3979                           ;CANlib.h: 899: RXF1SIDLbits.SID1 = 0x01;
  3980  0007E2  010F               	movlb	15	; () banked
  3981  0007E4  8D05               	bsf	5,6,b	;volatile
  3982  0007E6  D002               	goto	l485
  3983  0007E8                     l484:
  3984                           
  3985                           ; BSR set to: 0
  3986                           ;CANlib.h: 900: else
  3987                           ;CANlib.h: 901: RXF1SIDLbits.SID1 = 0x00;
  3988  0007E8  010F               	movlb	15	; () banked
  3989  0007EA  9D05               	bcf	5,6,b	;volatile
  3990  0007EC                     l485:
  3991                           
  3992                           ; BSR set to: 15
  3993                           ;CANlib.h: 903: if (filter & 0x00100000)
  3994  0007EC  0100               	movlb	0	; () banked
  3995  0007EE  A970               	btfss	(CANSetFilter@filter+2)& (0+255),4,b
  3996  0007F0  D003               	goto	l486
  3997                           
  3998                           ; BSR set to: 0
  3999                           ;CANlib.h: 904: RXF1SIDLbits.SID2 = 0x01 ;
  4000  0007F2  010F               	movlb	15	; () banked
  4001  0007F4  8F05               	bsf	5,7,b	;volatile
  4002  0007F6  D002               	goto	l4228
  4003  0007F8                     l486:
  4004                           
  4005                           ; BSR set to: 0
  4006                           ;CANlib.h: 905: else
  4007                           ;CANlib.h: 906: RXF1SIDLbits.SID2 = 0x00 ;
  4008  0007F8  010F               	movlb	15	; () banked
  4009  0007FA  9F05               	bcf	5,7,b	;volatile
  4010  0007FC                     l4228:
  4011                           
  4012                           ; BSR set to: 15
  4013                           ;CANlib.h: 908: tamp = (filter >> 21);
  4014  0007FC  C06E  F073         	movff	CANSetFilter@filter,??_CANSetFilter
  4015  000800  C06F  F074         	movff	CANSetFilter@filter+1,??_CANSetFilter+1
  4016  000804  C070  F075         	movff	CANSetFilter@filter+2,??_CANSetFilter+2
  4017  000808  C071  F076         	movff	CANSetFilter@filter+3,??_CANSetFilter+3
  4018  00080C  0E16               	movlw	22
  4019  00080E  D006               	goto	u5310
  4020  000810                     u5315:
  4021  000810  0100               	movlb	0	; () banked
  4022  000812  90D8               	bcf	status,0,c
  4023  000814  3376               	rrcf	(??_CANSetFilter+3)& (0+255),f,b
  4024  000816  3375               	rrcf	(??_CANSetFilter+2)& (0+255),f,b
  4025  000818  3374               	rrcf	(??_CANSetFilter+1)& (0+255),f,b
  4026  00081A  3373               	rrcf	??_CANSetFilter& (0+255),f,b
  4027  00081C                     u5310:
  4028  00081C  2EE8               	decfsz	wreg,f,c
  4029  00081E  D7F8               	goto	u5315
  4030  000820  C073  F078         	movff	??_CANSetFilter,CANSetFilter@tamp
  4031  000824  C074  F079         	movff	??_CANSetFilter+1,CANSetFilter@tamp+1
  4032  000828  C075  F07A         	movff	??_CANSetFilter+2,CANSetFilter@tamp+2
  4033  00082C  C076  F07B         	movff	??_CANSetFilter+3,CANSetFilter@tamp+3
  4034                           
  4035                           ; BSR set to: 0
  4036                           ;CANlib.h: 909: tamp = tamp & 0x000000FF;
  4037  000830  0100               	movlb	0	; () banked
  4038  000832  5178               	movf	CANSetFilter@tamp& (0+255),w,b
  4039  000834  0100               	movlb	0	; () banked
  4040  000836  6F78               	movwf	CANSetFilter@tamp& (0+255),b
  4041  000838  6B79               	clrf	(CANSetFilter@tamp+1)& (0+255),b
  4042  00083A  6B7A               	clrf	(CANSetFilter@tamp+2)& (0+255),b
  4043  00083C  6B7B               	clrf	(CANSetFilter@tamp+3)& (0+255),b
  4044                           
  4045                           ; BSR set to: 0
  4046                           ;CANlib.h: 910: RXF1SIDH = (unsigned char) tamp;
  4047  00083E  C078  FF04         	movff	CANSetFilter@tamp,3844	;volatile
  4048  000842                     l4234:
  4049                           
  4050                           ; BSR set to: 0
  4051                           ;CANlib.h: 911: }
  4052                           ;CANlib.h: 914: if ((numBuffer ==CAN_FILTER_B2_F1) && (type == CAN_CONFIG_XTD_MSG))
  4053  000842  0E02               	movlw	2
  4054  000844  0100               	movlb	0	; () banked
  4055  000846  1977               	xorwf	CANSetFilter@numBuffer& (0+255),w,b
  4056  000848  A4D8               	btfss	status,2,c
  4057  00084A  D089               	goto	l4268
  4058                           
  4059                           ; BSR set to: 0
  4060  00084C  0EF7               	movlw	247
  4061  00084E  0100               	movlb	0	; () banked
  4062  000850  1972               	xorwf	CANSetFilter@type& (0+255),w,b
  4063  000852  A4D8               	btfss	status,2,c
  4064  000854  D084               	goto	l4268
  4065                           
  4066                           ; BSR set to: 0
  4067                           ;CANlib.h: 915: {
  4068                           ;CANlib.h: 916: RXF2SIDLbits.EXIDEN = 0x01;
  4069  000856  010F               	movlb	15	; () banked
  4070  000858  8709               	bsf	9,3,b	;volatile
  4071                           
  4072                           ; BSR set to: 15
  4073                           ;CANlib.h: 918: tamp = filter & 0x000000FF;
  4074  00085A  0100               	movlb	0	; () banked
  4075  00085C  516E               	movf	CANSetFilter@filter& (0+255),w,b
  4076  00085E  0100               	movlb	0	; () banked
  4077  000860  6F78               	movwf	CANSetFilter@tamp& (0+255),b
  4078  000862  6B79               	clrf	(CANSetFilter@tamp+1)& (0+255),b
  4079  000864  6B7A               	clrf	(CANSetFilter@tamp+2)& (0+255),b
  4080  000866  6B7B               	clrf	(CANSetFilter@tamp+3)& (0+255),b
  4081                           
  4082                           ; BSR set to: 0
  4083                           ;CANlib.h: 919: RXF2EIDL = (unsigned char) tamp;
  4084  000868  C078  FF0B         	movff	CANSetFilter@tamp,3851	;volatile
  4085                           
  4086                           ; BSR set to: 0
  4087                           ;CANlib.h: 921: tamp = filter & 0x0000FF00;
  4088  00086C  0E00               	movlw	0
  4089  00086E  0100               	movlb	0	; () banked
  4090  000870  156E               	andwf	CANSetFilter@filter& (0+255),w,b
  4091  000872  0100               	movlb	0	; () banked
  4092  000874  6F78               	movwf	CANSetFilter@tamp& (0+255),b
  4093  000876  0EFF               	movlw	255
  4094  000878  0100               	movlb	0	; () banked
  4095  00087A  156F               	andwf	(CANSetFilter@filter+1)& (0+255),w,b
  4096  00087C  0100               	movlb	0	; () banked
  4097  00087E  6F79               	movwf	(CANSetFilter@tamp+1)& (0+255),b
  4098  000880  0E00               	movlw	0
  4099  000882  0100               	movlb	0	; () banked
  4100  000884  1570               	andwf	(CANSetFilter@filter+2)& (0+255),w,b
  4101  000886  0100               	movlb	0	; () banked
  4102  000888  6F7A               	movwf	(CANSetFilter@tamp+2)& (0+255),b
  4103  00088A  0E00               	movlw	0
  4104  00088C  0100               	movlb	0	; () banked
  4105  00088E  1571               	andwf	(CANSetFilter@filter+3)& (0+255),w,b
  4106  000890  0100               	movlb	0	; () banked
  4107  000892  6F7B               	movwf	(CANSetFilter@tamp+3)& (0+255),b
  4108                           
  4109                           ; BSR set to: 0
  4110                           ;CANlib.h: 922: tamp = tamp >> 8;
  4111  000894  C078  F073         	movff	CANSetFilter@tamp,??_CANSetFilter
  4112  000898  C079  F074         	movff	CANSetFilter@tamp+1,??_CANSetFilter+1
  4113  00089C  C07A  F075         	movff	CANSetFilter@tamp+2,??_CANSetFilter+2
  4114  0008A0  C07B  F076         	movff	CANSetFilter@tamp+3,??_CANSetFilter+3
  4115  0008A4  C074  F073         	movff	??_CANSetFilter+1,??_CANSetFilter
  4116  0008A8  C075  F074         	movff	??_CANSetFilter+2,??_CANSetFilter+1
  4117  0008AC  C076  F075         	movff	??_CANSetFilter+3,??_CANSetFilter+2
  4118  0008B0  0100               	movlb	0	; () banked
  4119  0008B2  6B76               	clrf	(??_CANSetFilter+3)& (0+255),b
  4120  0008B4  C073  F078         	movff	??_CANSetFilter,CANSetFilter@tamp
  4121  0008B8  C074  F079         	movff	??_CANSetFilter+1,CANSetFilter@tamp+1
  4122  0008BC  C075  F07A         	movff	??_CANSetFilter+2,CANSetFilter@tamp+2
  4123  0008C0  C076  F07B         	movff	??_CANSetFilter+3,CANSetFilter@tamp+3
  4124                           
  4125                           ; BSR set to: 0
  4126                           ;CANlib.h: 923: RXF2EIDH = (unsigned char) tamp;
  4127  0008C4  C078  FF0A         	movff	CANSetFilter@tamp,3850	;volatile
  4128                           
  4129                           ; BSR set to: 0
  4130                           ;CANlib.h: 925: if (filter & 0x00010000)
  4131  0008C8  0100               	movlb	0	; () banked
  4132  0008CA  A170               	btfss	(CANSetFilter@filter+2)& (0+255),0,b
  4133  0008CC  D003               	goto	l489
  4134                           
  4135                           ; BSR set to: 0
  4136                           ;CANlib.h: 926: RXF2SIDLbits.EID16 = 0x01;
  4137  0008CE  010F               	movlb	15	; () banked
  4138  0008D0  8109               	bsf	9,0,b	;volatile
  4139  0008D2  D002               	goto	l490
  4140  0008D4                     l489:
  4141                           
  4142                           ; BSR set to: 0
  4143                           ;CANlib.h: 927: else
  4144                           ;CANlib.h: 928: RXF2SIDLbits.EID16 = 0x00;
  4145  0008D4  010F               	movlb	15	; () banked
  4146  0008D6  9109               	bcf	9,0,b	;volatile
  4147  0008D8                     l490:
  4148                           
  4149                           ; BSR set to: 15
  4150                           ;CANlib.h: 930: if (filter & 0x00020000)
  4151  0008D8  0100               	movlb	0	; () banked
  4152  0008DA  A370               	btfss	(CANSetFilter@filter+2)& (0+255),1,b
  4153  0008DC  D003               	goto	l491
  4154                           
  4155                           ; BSR set to: 0
  4156                           ;CANlib.h: 931: RXF2SIDLbits.EID17 = 0x01;
  4157  0008DE  010F               	movlb	15	; () banked
  4158  0008E0  8309               	bsf	9,1,b	;volatile
  4159  0008E2  D002               	goto	l492
  4160  0008E4                     l491:
  4161                           
  4162                           ; BSR set to: 0
  4163                           ;CANlib.h: 932: else
  4164                           ;CANlib.h: 933: RXF2SIDLbits.EID17 = 0x00;
  4165  0008E4  010F               	movlb	15	; () banked
  4166  0008E6  9309               	bcf	9,1,b	;volatile
  4167  0008E8                     l492:
  4168                           
  4169                           ; BSR set to: 15
  4170                           ;CANlib.h: 935: if (filter & 0x00040000)
  4171  0008E8  0100               	movlb	0	; () banked
  4172  0008EA  A570               	btfss	(CANSetFilter@filter+2)& (0+255),2,b
  4173  0008EC  D003               	goto	l493
  4174                           
  4175                           ; BSR set to: 0
  4176                           ;CANlib.h: 936: RXF2SIDLbits.SID0 = 0x01;
  4177  0008EE  010F               	movlb	15	; () banked
  4178  0008F0  8B09               	bsf	9,5,b	;volatile
  4179  0008F2  D002               	goto	l494
  4180  0008F4                     l493:
  4181                           
  4182                           ; BSR set to: 0
  4183                           ;CANlib.h: 937: else
  4184                           ;CANlib.h: 938: RXF2SIDLbits.SID0 = 0x00;
  4185  0008F4  010F               	movlb	15	; () banked
  4186  0008F6  9B09               	bcf	9,5,b	;volatile
  4187  0008F8                     l494:
  4188                           
  4189                           ; BSR set to: 15
  4190                           ;CANlib.h: 940: if (filter & 0x00080000)
  4191  0008F8  0100               	movlb	0	; () banked
  4192  0008FA  A770               	btfss	(CANSetFilter@filter+2)& (0+255),3,b
  4193  0008FC  D003               	goto	l495
  4194                           
  4195                           ; BSR set to: 0
  4196                           ;CANlib.h: 941: RXF2SIDLbits.SID1 = 0x01;
  4197  0008FE  010F               	movlb	15	; () banked
  4198  000900  8D09               	bsf	9,6,b	;volatile
  4199  000902  D002               	goto	l496
  4200  000904                     l495:
  4201                           
  4202                           ; BSR set to: 0
  4203                           ;CANlib.h: 942: else
  4204                           ;CANlib.h: 943: RXF2SIDLbits.SID1 = 0x00;
  4205  000904  010F               	movlb	15	; () banked
  4206  000906  9D09               	bcf	9,6,b	;volatile
  4207  000908                     l496:
  4208                           
  4209                           ; BSR set to: 15
  4210                           ;CANlib.h: 945: if (filter & 0x00100000)
  4211  000908  0100               	movlb	0	; () banked
  4212  00090A  A970               	btfss	(CANSetFilter@filter+2)& (0+255),4,b
  4213  00090C  D003               	goto	l497
  4214                           
  4215                           ; BSR set to: 0
  4216                           ;CANlib.h: 946: RXF2SIDLbits.SID2 = 0x01 ;
  4217  00090E  010F               	movlb	15	; () banked
  4218  000910  8F09               	bsf	9,7,b	;volatile
  4219  000912  D002               	goto	l4262
  4220  000914                     l497:
  4221                           
  4222                           ; BSR set to: 0
  4223                           ;CANlib.h: 947: else
  4224                           ;CANlib.h: 948: RXF2SIDLbits.SID2 = 0x00 ;
  4225  000914  010F               	movlb	15	; () banked
  4226  000916  9F09               	bcf	9,7,b	;volatile
  4227  000918                     l4262:
  4228                           
  4229                           ; BSR set to: 15
  4230                           ;CANlib.h: 950: tamp = (filter >> 21);
  4231  000918  C06E  F073         	movff	CANSetFilter@filter,??_CANSetFilter
  4232  00091C  C06F  F074         	movff	CANSetFilter@filter+1,??_CANSetFilter+1
  4233  000920  C070  F075         	movff	CANSetFilter@filter+2,??_CANSetFilter+2
  4234  000924  C071  F076         	movff	CANSetFilter@filter+3,??_CANSetFilter+3
  4235  000928  0E16               	movlw	22
  4236  00092A  D006               	goto	u5390
  4237  00092C                     u5395:
  4238  00092C  0100               	movlb	0	; () banked
  4239  00092E  90D8               	bcf	status,0,c
  4240  000930  3376               	rrcf	(??_CANSetFilter+3)& (0+255),f,b
  4241  000932  3375               	rrcf	(??_CANSetFilter+2)& (0+255),f,b
  4242  000934  3374               	rrcf	(??_CANSetFilter+1)& (0+255),f,b
  4243  000936  3373               	rrcf	??_CANSetFilter& (0+255),f,b
  4244  000938                     u5390:
  4245  000938  2EE8               	decfsz	wreg,f,c
  4246  00093A  D7F8               	goto	u5395
  4247  00093C  C073  F078         	movff	??_CANSetFilter,CANSetFilter@tamp
  4248  000940  C074  F079         	movff	??_CANSetFilter+1,CANSetFilter@tamp+1
  4249  000944  C075  F07A         	movff	??_CANSetFilter+2,CANSetFilter@tamp+2
  4250  000948  C076  F07B         	movff	??_CANSetFilter+3,CANSetFilter@tamp+3
  4251                           
  4252                           ; BSR set to: 0
  4253                           ;CANlib.h: 951: tamp = tamp & 0x000000FF;
  4254  00094C  0100               	movlb	0	; () banked
  4255  00094E  5178               	movf	CANSetFilter@tamp& (0+255),w,b
  4256  000950  0100               	movlb	0	; () banked
  4257  000952  6F78               	movwf	CANSetFilter@tamp& (0+255),b
  4258  000954  6B79               	clrf	(CANSetFilter@tamp+1)& (0+255),b
  4259  000956  6B7A               	clrf	(CANSetFilter@tamp+2)& (0+255),b
  4260  000958  6B7B               	clrf	(CANSetFilter@tamp+3)& (0+255),b
  4261                           
  4262                           ; BSR set to: 0
  4263                           ;CANlib.h: 952: RXF2SIDH = (unsigned char) tamp;
  4264  00095A  C078  FF08         	movff	CANSetFilter@tamp,3848	;volatile
  4265  00095E                     l4268:
  4266                           
  4267                           ; BSR set to: 0
  4268                           ;CANlib.h: 953: }
  4269                           ;CANlib.h: 955: if ((numBuffer ==CAN_FILTER_B2_F2) && (type == CAN_CONFIG_XTD_MSG))
  4270  00095E  0E03               	movlw	3
  4271  000960  0100               	movlb	0	; () banked
  4272  000962  1977               	xorwf	CANSetFilter@numBuffer& (0+255),w,b
  4273  000964  A4D8               	btfss	status,2,c
  4274  000966  D089               	goto	l4302
  4275                           
  4276                           ; BSR set to: 0
  4277  000968  0EF7               	movlw	247
  4278  00096A  0100               	movlb	0	; () banked
  4279  00096C  1972               	xorwf	CANSetFilter@type& (0+255),w,b
  4280  00096E  A4D8               	btfss	status,2,c
  4281  000970  D084               	goto	l4302
  4282                           
  4283                           ; BSR set to: 0
  4284                           ;CANlib.h: 956: {
  4285                           ;CANlib.h: 957: RXF3SIDLbits.EXIDEN = 0x01;
  4286  000972  010F               	movlb	15	; () banked
  4287  000974  870D               	bsf	13,3,b	;volatile
  4288                           
  4289                           ; BSR set to: 15
  4290                           ;CANlib.h: 959: tamp = filter & 0x000000FF;
  4291  000976  0100               	movlb	0	; () banked
  4292  000978  516E               	movf	CANSetFilter@filter& (0+255),w,b
  4293  00097A  0100               	movlb	0	; () banked
  4294  00097C  6F78               	movwf	CANSetFilter@tamp& (0+255),b
  4295  00097E  6B79               	clrf	(CANSetFilter@tamp+1)& (0+255),b
  4296  000980  6B7A               	clrf	(CANSetFilter@tamp+2)& (0+255),b
  4297  000982  6B7B               	clrf	(CANSetFilter@tamp+3)& (0+255),b
  4298                           
  4299                           ; BSR set to: 0
  4300                           ;CANlib.h: 960: RXF3EIDL = (unsigned char) tamp;
  4301  000984  C078  FF0F         	movff	CANSetFilter@tamp,3855	;volatile
  4302                           
  4303                           ; BSR set to: 0
  4304                           ;CANlib.h: 962: tamp = filter & 0x0000FF00;
  4305  000988  0E00               	movlw	0
  4306  00098A  0100               	movlb	0	; () banked
  4307  00098C  156E               	andwf	CANSetFilter@filter& (0+255),w,b
  4308  00098E  0100               	movlb	0	; () banked
  4309  000990  6F78               	movwf	CANSetFilter@tamp& (0+255),b
  4310  000992  0EFF               	movlw	255
  4311  000994  0100               	movlb	0	; () banked
  4312  000996  156F               	andwf	(CANSetFilter@filter+1)& (0+255),w,b
  4313  000998  0100               	movlb	0	; () banked
  4314  00099A  6F79               	movwf	(CANSetFilter@tamp+1)& (0+255),b
  4315  00099C  0E00               	movlw	0
  4316  00099E  0100               	movlb	0	; () banked
  4317  0009A0  1570               	andwf	(CANSetFilter@filter+2)& (0+255),w,b
  4318  0009A2  0100               	movlb	0	; () banked
  4319  0009A4  6F7A               	movwf	(CANSetFilter@tamp+2)& (0+255),b
  4320  0009A6  0E00               	movlw	0
  4321  0009A8  0100               	movlb	0	; () banked
  4322  0009AA  1571               	andwf	(CANSetFilter@filter+3)& (0+255),w,b
  4323  0009AC  0100               	movlb	0	; () banked
  4324  0009AE  6F7B               	movwf	(CANSetFilter@tamp+3)& (0+255),b
  4325                           
  4326                           ; BSR set to: 0
  4327                           ;CANlib.h: 963: tamp = tamp >> 8;
  4328  0009B0  C078  F073         	movff	CANSetFilter@tamp,??_CANSetFilter
  4329  0009B4  C079  F074         	movff	CANSetFilter@tamp+1,??_CANSetFilter+1
  4330  0009B8  C07A  F075         	movff	CANSetFilter@tamp+2,??_CANSetFilter+2
  4331  0009BC  C07B  F076         	movff	CANSetFilter@tamp+3,??_CANSetFilter+3
  4332  0009C0  C074  F073         	movff	??_CANSetFilter+1,??_CANSetFilter
  4333  0009C4  C075  F074         	movff	??_CANSetFilter+2,??_CANSetFilter+1
  4334  0009C8  C076  F075         	movff	??_CANSetFilter+3,??_CANSetFilter+2
  4335  0009CC  0100               	movlb	0	; () banked
  4336  0009CE  6B76               	clrf	(??_CANSetFilter+3)& (0+255),b
  4337  0009D0  C073  F078         	movff	??_CANSetFilter,CANSetFilter@tamp
  4338  0009D4  C074  F079         	movff	??_CANSetFilter+1,CANSetFilter@tamp+1
  4339  0009D8  C075  F07A         	movff	??_CANSetFilter+2,CANSetFilter@tamp+2
  4340  0009DC  C076  F07B         	movff	??_CANSetFilter+3,CANSetFilter@tamp+3
  4341                           
  4342                           ; BSR set to: 0
  4343                           ;CANlib.h: 964: RXF3EIDH = (unsigned char) tamp;
  4344  0009E0  C078  FF0E         	movff	CANSetFilter@tamp,3854	;volatile
  4345                           
  4346                           ; BSR set to: 0
  4347                           ;CANlib.h: 966: if (filter & 0x00010000)
  4348  0009E4  0100               	movlb	0	; () banked
  4349  0009E6  A170               	btfss	(CANSetFilter@filter+2)& (0+255),0,b
  4350  0009E8  D003               	goto	l500
  4351                           
  4352                           ; BSR set to: 0
  4353                           ;CANlib.h: 967: RXF3SIDLbits.EID16 = 0x01;
  4354  0009EA  010F               	movlb	15	; () banked
  4355  0009EC  810D               	bsf	13,0,b	;volatile
  4356  0009EE  D002               	goto	l501
  4357  0009F0                     l500:
  4358                           
  4359                           ; BSR set to: 0
  4360                           ;CANlib.h: 968: else
  4361                           ;CANlib.h: 969: RXF3SIDLbits.EID16 = 0x00;
  4362  0009F0  010F               	movlb	15	; () banked
  4363  0009F2  910D               	bcf	13,0,b	;volatile
  4364  0009F4                     l501:
  4365                           
  4366                           ; BSR set to: 15
  4367                           ;CANlib.h: 971: if (filter & 0x00020000)
  4368  0009F4  0100               	movlb	0	; () banked
  4369  0009F6  A370               	btfss	(CANSetFilter@filter+2)& (0+255),1,b
  4370  0009F8  D003               	goto	l502
  4371                           
  4372                           ; BSR set to: 0
  4373                           ;CANlib.h: 972: RXF3SIDLbits.EID17 = 0x01;
  4374  0009FA  010F               	movlb	15	; () banked
  4375  0009FC  830D               	bsf	13,1,b	;volatile
  4376  0009FE  D002               	goto	l503
  4377  000A00                     l502:
  4378                           
  4379                           ; BSR set to: 0
  4380                           ;CANlib.h: 973: else
  4381                           ;CANlib.h: 974: RXF3SIDLbits.EID17 = 0x00;
  4382  000A00  010F               	movlb	15	; () banked
  4383  000A02  930D               	bcf	13,1,b	;volatile
  4384  000A04                     l503:
  4385                           
  4386                           ; BSR set to: 15
  4387                           ;CANlib.h: 976: if (filter & 0x00040000)
  4388  000A04  0100               	movlb	0	; () banked
  4389  000A06  A570               	btfss	(CANSetFilter@filter+2)& (0+255),2,b
  4390  000A08  D003               	goto	l504
  4391                           
  4392                           ; BSR set to: 0
  4393                           ;CANlib.h: 977: RXF3SIDLbits.SID0 = 0x01;
  4394  000A0A  010F               	movlb	15	; () banked
  4395  000A0C  8B0D               	bsf	13,5,b	;volatile
  4396  000A0E  D002               	goto	l505
  4397  000A10                     l504:
  4398                           
  4399                           ; BSR set to: 0
  4400                           ;CANlib.h: 978: else
  4401                           ;CANlib.h: 979: RXF3SIDLbits.SID0 = 0x00;
  4402  000A10  010F               	movlb	15	; () banked
  4403  000A12  9B0D               	bcf	13,5,b	;volatile
  4404  000A14                     l505:
  4405                           
  4406                           ; BSR set to: 15
  4407                           ;CANlib.h: 981: if (filter & 0x00080000)
  4408  000A14  0100               	movlb	0	; () banked
  4409  000A16  A770               	btfss	(CANSetFilter@filter+2)& (0+255),3,b
  4410  000A18  D003               	goto	l506
  4411                           
  4412                           ; BSR set to: 0
  4413                           ;CANlib.h: 982: RXF3SIDLbits.SID1 = 0x01;
  4414  000A1A  010F               	movlb	15	; () banked
  4415  000A1C  8D0D               	bsf	13,6,b	;volatile
  4416  000A1E  D002               	goto	l507
  4417  000A20                     l506:
  4418                           
  4419                           ; BSR set to: 0
  4420                           ;CANlib.h: 983: else
  4421                           ;CANlib.h: 984: RXF3SIDLbits.SID1 = 0x00;
  4422  000A20  010F               	movlb	15	; () banked
  4423  000A22  9D0D               	bcf	13,6,b	;volatile
  4424  000A24                     l507:
  4425                           
  4426                           ; BSR set to: 15
  4427                           ;CANlib.h: 986: if (filter & 0x00100000)
  4428  000A24  0100               	movlb	0	; () banked
  4429  000A26  A970               	btfss	(CANSetFilter@filter+2)& (0+255),4,b
  4430  000A28  D003               	goto	l508
  4431                           
  4432                           ; BSR set to: 0
  4433                           ;CANlib.h: 987: RXF3SIDLbits.SID2 = 0x01 ;
  4434  000A2A  010F               	movlb	15	; () banked
  4435  000A2C  8F0D               	bsf	13,7,b	;volatile
  4436  000A2E  D002               	goto	l4296
  4437  000A30                     l508:
  4438                           
  4439                           ; BSR set to: 0
  4440                           ;CANlib.h: 988: else
  4441                           ;CANlib.h: 989: RXF3SIDLbits.SID2 = 0x00 ;
  4442  000A30  010F               	movlb	15	; () banked
  4443  000A32  9F0D               	bcf	13,7,b	;volatile
  4444  000A34                     l4296:
  4445                           
  4446                           ; BSR set to: 15
  4447                           ;CANlib.h: 991: tamp = (filter >> 21);
  4448  000A34  C06E  F073         	movff	CANSetFilter@filter,??_CANSetFilter
  4449  000A38  C06F  F074         	movff	CANSetFilter@filter+1,??_CANSetFilter+1
  4450  000A3C  C070  F075         	movff	CANSetFilter@filter+2,??_CANSetFilter+2
  4451  000A40  C071  F076         	movff	CANSetFilter@filter+3,??_CANSetFilter+3
  4452  000A44  0E16               	movlw	22
  4453  000A46  D006               	goto	u5470
  4454  000A48                     u5475:
  4455  000A48  0100               	movlb	0	; () banked
  4456  000A4A  90D8               	bcf	status,0,c
  4457  000A4C  3376               	rrcf	(??_CANSetFilter+3)& (0+255),f,b
  4458  000A4E  3375               	rrcf	(??_CANSetFilter+2)& (0+255),f,b
  4459  000A50  3374               	rrcf	(??_CANSetFilter+1)& (0+255),f,b
  4460  000A52  3373               	rrcf	??_CANSetFilter& (0+255),f,b
  4461  000A54                     u5470:
  4462  000A54  2EE8               	decfsz	wreg,f,c
  4463  000A56  D7F8               	goto	u5475
  4464  000A58  C073  F078         	movff	??_CANSetFilter,CANSetFilter@tamp
  4465  000A5C  C074  F079         	movff	??_CANSetFilter+1,CANSetFilter@tamp+1
  4466  000A60  C075  F07A         	movff	??_CANSetFilter+2,CANSetFilter@tamp+2
  4467  000A64  C076  F07B         	movff	??_CANSetFilter+3,CANSetFilter@tamp+3
  4468                           
  4469                           ; BSR set to: 0
  4470                           ;CANlib.h: 992: tamp = tamp & 0x000000FF;
  4471  000A68  0100               	movlb	0	; () banked
  4472  000A6A  5178               	movf	CANSetFilter@tamp& (0+255),w,b
  4473  000A6C  0100               	movlb	0	; () banked
  4474  000A6E  6F78               	movwf	CANSetFilter@tamp& (0+255),b
  4475  000A70  6B79               	clrf	(CANSetFilter@tamp+1)& (0+255),b
  4476  000A72  6B7A               	clrf	(CANSetFilter@tamp+2)& (0+255),b
  4477  000A74  6B7B               	clrf	(CANSetFilter@tamp+3)& (0+255),b
  4478                           
  4479                           ; BSR set to: 0
  4480                           ;CANlib.h: 993: RXF3SIDH = (unsigned char) tamp;
  4481  000A76  C078  FF0C         	movff	CANSetFilter@tamp,3852	;volatile
  4482  000A7A                     l4302:
  4483                           
  4484                           ; BSR set to: 0
  4485                           ;CANlib.h: 994: }
  4486                           ;CANlib.h: 996: if ((numBuffer ==CAN_FILTER_B2_F3) && (type == CAN_CONFIG_XTD_MSG))
  4487  000A7A  0E04               	movlw	4
  4488  000A7C  0100               	movlb	0	; () banked
  4489  000A7E  1977               	xorwf	CANSetFilter@numBuffer& (0+255),w,b
  4490  000A80  A4D8               	btfss	status,2,c
  4491  000A82  D089               	goto	l4336
  4492                           
  4493                           ; BSR set to: 0
  4494  000A84  0EF7               	movlw	247
  4495  000A86  0100               	movlb	0	; () banked
  4496  000A88  1972               	xorwf	CANSetFilter@type& (0+255),w,b
  4497  000A8A  A4D8               	btfss	status,2,c
  4498  000A8C  D084               	goto	l4336
  4499                           
  4500                           ; BSR set to: 0
  4501                           ;CANlib.h: 997: {
  4502                           ;CANlib.h: 998: RXF4SIDLbits.EXIDEN = 0x01;
  4503  000A8E  010F               	movlb	15	; () banked
  4504  000A90  8711               	bsf	17,3,b	;volatile
  4505                           
  4506                           ; BSR set to: 15
  4507                           ;CANlib.h: 1000: tamp = filter & 0x000000FF;
  4508  000A92  0100               	movlb	0	; () banked
  4509  000A94  516E               	movf	CANSetFilter@filter& (0+255),w,b
  4510  000A96  0100               	movlb	0	; () banked
  4511  000A98  6F78               	movwf	CANSetFilter@tamp& (0+255),b
  4512  000A9A  6B79               	clrf	(CANSetFilter@tamp+1)& (0+255),b
  4513  000A9C  6B7A               	clrf	(CANSetFilter@tamp+2)& (0+255),b
  4514  000A9E  6B7B               	clrf	(CANSetFilter@tamp+3)& (0+255),b
  4515                           
  4516                           ; BSR set to: 0
  4517                           ;CANlib.h: 1001: RXF4EIDL = (unsigned char) tamp;
  4518  000AA0  C078  FF13         	movff	CANSetFilter@tamp,3859	;volatile
  4519                           
  4520                           ; BSR set to: 0
  4521                           ;CANlib.h: 1003: tamp = filter & 0x0000FF00;
  4522  000AA4  0E00               	movlw	0
  4523  000AA6  0100               	movlb	0	; () banked
  4524  000AA8  156E               	andwf	CANSetFilter@filter& (0+255),w,b
  4525  000AAA  0100               	movlb	0	; () banked
  4526  000AAC  6F78               	movwf	CANSetFilter@tamp& (0+255),b
  4527  000AAE  0EFF               	movlw	255
  4528  000AB0  0100               	movlb	0	; () banked
  4529  000AB2  156F               	andwf	(CANSetFilter@filter+1)& (0+255),w,b
  4530  000AB4  0100               	movlb	0	; () banked
  4531  000AB6  6F79               	movwf	(CANSetFilter@tamp+1)& (0+255),b
  4532  000AB8  0E00               	movlw	0
  4533  000ABA  0100               	movlb	0	; () banked
  4534  000ABC  1570               	andwf	(CANSetFilter@filter+2)& (0+255),w,b
  4535  000ABE  0100               	movlb	0	; () banked
  4536  000AC0  6F7A               	movwf	(CANSetFilter@tamp+2)& (0+255),b
  4537  000AC2  0E00               	movlw	0
  4538  000AC4  0100               	movlb	0	; () banked
  4539  000AC6  1571               	andwf	(CANSetFilter@filter+3)& (0+255),w,b
  4540  000AC8  0100               	movlb	0	; () banked
  4541  000ACA  6F7B               	movwf	(CANSetFilter@tamp+3)& (0+255),b
  4542                           
  4543                           ; BSR set to: 0
  4544                           ;CANlib.h: 1004: tamp = tamp >> 8;
  4545  000ACC  C078  F073         	movff	CANSetFilter@tamp,??_CANSetFilter
  4546  000AD0  C079  F074         	movff	CANSetFilter@tamp+1,??_CANSetFilter+1
  4547  000AD4  C07A  F075         	movff	CANSetFilter@tamp+2,??_CANSetFilter+2
  4548  000AD8  C07B  F076         	movff	CANSetFilter@tamp+3,??_CANSetFilter+3
  4549  000ADC  C074  F073         	movff	??_CANSetFilter+1,??_CANSetFilter
  4550  000AE0  C075  F074         	movff	??_CANSetFilter+2,??_CANSetFilter+1
  4551  000AE4  C076  F075         	movff	??_CANSetFilter+3,??_CANSetFilter+2
  4552  000AE8  0100               	movlb	0	; () banked
  4553  000AEA  6B76               	clrf	(??_CANSetFilter+3)& (0+255),b
  4554  000AEC  C073  F078         	movff	??_CANSetFilter,CANSetFilter@tamp
  4555  000AF0  C074  F079         	movff	??_CANSetFilter+1,CANSetFilter@tamp+1
  4556  000AF4  C075  F07A         	movff	??_CANSetFilter+2,CANSetFilter@tamp+2
  4557  000AF8  C076  F07B         	movff	??_CANSetFilter+3,CANSetFilter@tamp+3
  4558                           
  4559                           ; BSR set to: 0
  4560                           ;CANlib.h: 1005: RXF4EIDH = (unsigned char) tamp;
  4561  000AFC  C078  FF12         	movff	CANSetFilter@tamp,3858	;volatile
  4562                           
  4563                           ; BSR set to: 0
  4564                           ;CANlib.h: 1007: if (filter & 0x00010000)
  4565  000B00  0100               	movlb	0	; () banked
  4566  000B02  A170               	btfss	(CANSetFilter@filter+2)& (0+255),0,b
  4567  000B04  D003               	goto	l511
  4568                           
  4569                           ; BSR set to: 0
  4570                           ;CANlib.h: 1008: RXF4SIDLbits.EID16 = 0x01;
  4571  000B06  010F               	movlb	15	; () banked
  4572  000B08  8111               	bsf	17,0,b	;volatile
  4573  000B0A  D002               	goto	l512
  4574  000B0C                     l511:
  4575                           
  4576                           ; BSR set to: 0
  4577                           ;CANlib.h: 1009: else
  4578                           ;CANlib.h: 1010: RXF4SIDLbits.EID16 = 0x00;
  4579  000B0C  010F               	movlb	15	; () banked
  4580  000B0E  9111               	bcf	17,0,b	;volatile
  4581  000B10                     l512:
  4582                           
  4583                           ; BSR set to: 15
  4584                           ;CANlib.h: 1012: if (filter & 0x00020000)
  4585  000B10  0100               	movlb	0	; () banked
  4586  000B12  A370               	btfss	(CANSetFilter@filter+2)& (0+255),1,b
  4587  000B14  D003               	goto	l513
  4588                           
  4589                           ; BSR set to: 0
  4590                           ;CANlib.h: 1013: RXF4SIDLbits.EID17 = 0x01;
  4591  000B16  010F               	movlb	15	; () banked
  4592  000B18  8311               	bsf	17,1,b	;volatile
  4593  000B1A  D002               	goto	l514
  4594  000B1C                     l513:
  4595                           
  4596                           ; BSR set to: 0
  4597                           ;CANlib.h: 1014: else
  4598                           ;CANlib.h: 1015: RXF4SIDLbits.EID17 = 0x00;
  4599  000B1C  010F               	movlb	15	; () banked
  4600  000B1E  9311               	bcf	17,1,b	;volatile
  4601  000B20                     l514:
  4602                           
  4603                           ; BSR set to: 15
  4604                           ;CANlib.h: 1017: if (filter & 0x00040000)
  4605  000B20  0100               	movlb	0	; () banked
  4606  000B22  A570               	btfss	(CANSetFilter@filter+2)& (0+255),2,b
  4607  000B24  D003               	goto	l515
  4608                           
  4609                           ; BSR set to: 0
  4610                           ;CANlib.h: 1018: RXF4SIDLbits.SID0 = 0x01;
  4611  000B26  010F               	movlb	15	; () banked
  4612  000B28  8B11               	bsf	17,5,b	;volatile
  4613  000B2A  D002               	goto	l516
  4614  000B2C                     l515:
  4615                           
  4616                           ; BSR set to: 0
  4617                           ;CANlib.h: 1019: else
  4618                           ;CANlib.h: 1020: RXF4SIDLbits.SID0 = 0x00;
  4619  000B2C  010F               	movlb	15	; () banked
  4620  000B2E  9B11               	bcf	17,5,b	;volatile
  4621  000B30                     l516:
  4622                           
  4623                           ; BSR set to: 15
  4624                           ;CANlib.h: 1022: if (filter & 0x00080000)
  4625  000B30  0100               	movlb	0	; () banked
  4626  000B32  A770               	btfss	(CANSetFilter@filter+2)& (0+255),3,b
  4627  000B34  D003               	goto	l517
  4628                           
  4629                           ; BSR set to: 0
  4630                           ;CANlib.h: 1023: RXF4SIDLbits.SID1 = 0x01;
  4631  000B36  010F               	movlb	15	; () banked
  4632  000B38  8D11               	bsf	17,6,b	;volatile
  4633  000B3A  D002               	goto	l518
  4634  000B3C                     l517:
  4635                           
  4636                           ; BSR set to: 0
  4637                           ;CANlib.h: 1024: else
  4638                           ;CANlib.h: 1025: RXF4SIDLbits.SID1 = 0x00;
  4639  000B3C  010F               	movlb	15	; () banked
  4640  000B3E  9D11               	bcf	17,6,b	;volatile
  4641  000B40                     l518:
  4642                           
  4643                           ; BSR set to: 15
  4644                           ;CANlib.h: 1027: if (filter & 0x00100000)
  4645  000B40  0100               	movlb	0	; () banked
  4646  000B42  A970               	btfss	(CANSetFilter@filter+2)& (0+255),4,b
  4647  000B44  D003               	goto	l519
  4648                           
  4649                           ; BSR set to: 0
  4650                           ;CANlib.h: 1028: RXF4SIDLbits.SID2 = 0x01 ;
  4651  000B46  010F               	movlb	15	; () banked
  4652  000B48  8F11               	bsf	17,7,b	;volatile
  4653  000B4A  D002               	goto	l4330
  4654  000B4C                     l519:
  4655                           
  4656                           ; BSR set to: 0
  4657                           ;CANlib.h: 1029: else
  4658                           ;CANlib.h: 1030: RXF4SIDLbits.SID2 = 0x00 ;
  4659  000B4C  010F               	movlb	15	; () banked
  4660  000B4E  9F11               	bcf	17,7,b	;volatile
  4661  000B50                     l4330:
  4662                           
  4663                           ; BSR set to: 15
  4664                           ;CANlib.h: 1032: tamp = (filter >> 21);
  4665  000B50  C06E  F073         	movff	CANSetFilter@filter,??_CANSetFilter
  4666  000B54  C06F  F074         	movff	CANSetFilter@filter+1,??_CANSetFilter+1
  4667  000B58  C070  F075         	movff	CANSetFilter@filter+2,??_CANSetFilter+2
  4668  000B5C  C071  F076         	movff	CANSetFilter@filter+3,??_CANSetFilter+3
  4669  000B60  0E16               	movlw	22
  4670  000B62  D006               	goto	u5550
  4671  000B64                     u5555:
  4672  000B64  0100               	movlb	0	; () banked
  4673  000B66  90D8               	bcf	status,0,c
  4674  000B68  3376               	rrcf	(??_CANSetFilter+3)& (0+255),f,b
  4675  000B6A  3375               	rrcf	(??_CANSetFilter+2)& (0+255),f,b
  4676  000B6C  3374               	rrcf	(??_CANSetFilter+1)& (0+255),f,b
  4677  000B6E  3373               	rrcf	??_CANSetFilter& (0+255),f,b
  4678  000B70                     u5550:
  4679  000B70  2EE8               	decfsz	wreg,f,c
  4680  000B72  D7F8               	goto	u5555
  4681  000B74  C073  F078         	movff	??_CANSetFilter,CANSetFilter@tamp
  4682  000B78  C074  F079         	movff	??_CANSetFilter+1,CANSetFilter@tamp+1
  4683  000B7C  C075  F07A         	movff	??_CANSetFilter+2,CANSetFilter@tamp+2
  4684  000B80  C076  F07B         	movff	??_CANSetFilter+3,CANSetFilter@tamp+3
  4685                           
  4686                           ; BSR set to: 0
  4687                           ;CANlib.h: 1033: tamp = tamp & 0x000000FF;
  4688  000B84  0100               	movlb	0	; () banked
  4689  000B86  5178               	movf	CANSetFilter@tamp& (0+255),w,b
  4690  000B88  0100               	movlb	0	; () banked
  4691  000B8A  6F78               	movwf	CANSetFilter@tamp& (0+255),b
  4692  000B8C  6B79               	clrf	(CANSetFilter@tamp+1)& (0+255),b
  4693  000B8E  6B7A               	clrf	(CANSetFilter@tamp+2)& (0+255),b
  4694  000B90  6B7B               	clrf	(CANSetFilter@tamp+3)& (0+255),b
  4695                           
  4696                           ; BSR set to: 0
  4697                           ;CANlib.h: 1034: RXF4SIDH = (unsigned char) tamp;
  4698  000B92  C078  FF10         	movff	CANSetFilter@tamp,3856	;volatile
  4699  000B96                     l4336:
  4700                           
  4701                           ; BSR set to: 0
  4702                           ;CANlib.h: 1035: }
  4703                           ;CANlib.h: 1037: if ((numBuffer ==CAN_FILTER_B2_F4) && (type == CAN_CONFIG_XTD_MSG))
  4704  000B96  0E05               	movlw	5
  4705  000B98  0100               	movlb	0	; () banked
  4706  000B9A  1977               	xorwf	CANSetFilter@numBuffer& (0+255),w,b
  4707  000B9C  A4D8               	btfss	status,2,c
  4708  000B9E  0012               	return	
  4709                           
  4710                           ; BSR set to: 0
  4711  000BA0  0EF7               	movlw	247
  4712  000BA2  0100               	movlb	0	; () banked
  4713  000BA4  1972               	xorwf	CANSetFilter@type& (0+255),w,b
  4714  000BA6  A4D8               	btfss	status,2,c
  4715  000BA8  0012               	return	
  4716                           
  4717                           ; BSR set to: 0
  4718                           ;CANlib.h: 1038: {
  4719                           ;CANlib.h: 1039: RXF5SIDLbits.EXIDEN = 0x01;
  4720  000BAA  010F               	movlb	15	; () banked
  4721  000BAC  8715               	bsf	21,3,b	;volatile
  4722                           
  4723                           ; BSR set to: 15
  4724                           ;CANlib.h: 1041: tamp = filter & 0x000000FF;
  4725  000BAE  0100               	movlb	0	; () banked
  4726  000BB0  516E               	movf	CANSetFilter@filter& (0+255),w,b
  4727  000BB2  0100               	movlb	0	; () banked
  4728  000BB4  6F78               	movwf	CANSetFilter@tamp& (0+255),b
  4729  000BB6  6B79               	clrf	(CANSetFilter@tamp+1)& (0+255),b
  4730  000BB8  6B7A               	clrf	(CANSetFilter@tamp+2)& (0+255),b
  4731  000BBA  6B7B               	clrf	(CANSetFilter@tamp+3)& (0+255),b
  4732                           
  4733                           ; BSR set to: 0
  4734                           ;CANlib.h: 1042: RXF5EIDL = (unsigned char) tamp;
  4735  000BBC  C078  FF17         	movff	CANSetFilter@tamp,3863	;volatile
  4736                           
  4737                           ; BSR set to: 0
  4738                           ;CANlib.h: 1044: tamp = filter & 0x0000FF00;
  4739  000BC0  0E00               	movlw	0
  4740  000BC2  0100               	movlb	0	; () banked
  4741  000BC4  156E               	andwf	CANSetFilter@filter& (0+255),w,b
  4742  000BC6  0100               	movlb	0	; () banked
  4743  000BC8  6F78               	movwf	CANSetFilter@tamp& (0+255),b
  4744  000BCA  0EFF               	movlw	255
  4745  000BCC  0100               	movlb	0	; () banked
  4746  000BCE  156F               	andwf	(CANSetFilter@filter+1)& (0+255),w,b
  4747  000BD0  0100               	movlb	0	; () banked
  4748  000BD2  6F79               	movwf	(CANSetFilter@tamp+1)& (0+255),b
  4749  000BD4  0E00               	movlw	0
  4750  000BD6  0100               	movlb	0	; () banked
  4751  000BD8  1570               	andwf	(CANSetFilter@filter+2)& (0+255),w,b
  4752  000BDA  0100               	movlb	0	; () banked
  4753  000BDC  6F7A               	movwf	(CANSetFilter@tamp+2)& (0+255),b
  4754  000BDE  0E00               	movlw	0
  4755  000BE0  0100               	movlb	0	; () banked
  4756  000BE2  1571               	andwf	(CANSetFilter@filter+3)& (0+255),w,b
  4757  000BE4  0100               	movlb	0	; () banked
  4758  000BE6  6F7B               	movwf	(CANSetFilter@tamp+3)& (0+255),b
  4759                           
  4760                           ; BSR set to: 0
  4761                           ;CANlib.h: 1045: tamp = tamp >> 8;
  4762  000BE8  C078  F073         	movff	CANSetFilter@tamp,??_CANSetFilter
  4763  000BEC  C079  F074         	movff	CANSetFilter@tamp+1,??_CANSetFilter+1
  4764  000BF0  C07A  F075         	movff	CANSetFilter@tamp+2,??_CANSetFilter+2
  4765  000BF4  C07B  F076         	movff	CANSetFilter@tamp+3,??_CANSetFilter+3
  4766  000BF8  C074  F073         	movff	??_CANSetFilter+1,??_CANSetFilter
  4767  000BFC  C075  F074         	movff	??_CANSetFilter+2,??_CANSetFilter+1
  4768  000C00  C076  F075         	movff	??_CANSetFilter+3,??_CANSetFilter+2
  4769  000C04  0100               	movlb	0	; () banked
  4770  000C06  6B76               	clrf	(??_CANSetFilter+3)& (0+255),b
  4771  000C08  C073  F078         	movff	??_CANSetFilter,CANSetFilter@tamp
  4772  000C0C  C074  F079         	movff	??_CANSetFilter+1,CANSetFilter@tamp+1
  4773  000C10  C075  F07A         	movff	??_CANSetFilter+2,CANSetFilter@tamp+2
  4774  000C14  C076  F07B         	movff	??_CANSetFilter+3,CANSetFilter@tamp+3
  4775                           
  4776                           ; BSR set to: 0
  4777                           ;CANlib.h: 1046: RXF5EIDH = (unsigned char) tamp;
  4778  000C18  C078  FF16         	movff	CANSetFilter@tamp,3862	;volatile
  4779                           
  4780                           ; BSR set to: 0
  4781                           ;CANlib.h: 1048: if (filter & 0x00010000)
  4782  000C1C  0100               	movlb	0	; () banked
  4783  000C1E  A170               	btfss	(CANSetFilter@filter+2)& (0+255),0,b
  4784  000C20  D003               	goto	l522
  4785                           
  4786                           ; BSR set to: 0
  4787                           ;CANlib.h: 1049: RXF5SIDLbits.EID16 = 0x01;
  4788  000C22  010F               	movlb	15	; () banked
  4789  000C24  8115               	bsf	21,0,b	;volatile
  4790  000C26  D002               	goto	l523
  4791  000C28                     l522:
  4792                           
  4793                           ; BSR set to: 0
  4794                           ;CANlib.h: 1050: else
  4795                           ;CANlib.h: 1051: RXF5SIDLbits.EID16 = 0x00;
  4796  000C28  010F               	movlb	15	; () banked
  4797  000C2A  9115               	bcf	21,0,b	;volatile
  4798  000C2C                     l523:
  4799                           
  4800                           ; BSR set to: 15
  4801                           ;CANlib.h: 1053: if (filter & 0x00020000)
  4802  000C2C  0100               	movlb	0	; () banked
  4803  000C2E  A370               	btfss	(CANSetFilter@filter+2)& (0+255),1,b
  4804  000C30  D003               	goto	l524
  4805                           
  4806                           ; BSR set to: 0
  4807                           ;CANlib.h: 1054: RXF5SIDLbits.EID17 = 0x01;
  4808  000C32  010F               	movlb	15	; () banked
  4809  000C34  8315               	bsf	21,1,b	;volatile
  4810  000C36  D002               	goto	l525
  4811  000C38                     l524:
  4812                           
  4813                           ; BSR set to: 0
  4814                           ;CANlib.h: 1055: else
  4815                           ;CANlib.h: 1056: RXF5SIDLbits.EID17 = 0x00;
  4816  000C38  010F               	movlb	15	; () banked
  4817  000C3A  9315               	bcf	21,1,b	;volatile
  4818  000C3C                     l525:
  4819                           
  4820                           ; BSR set to: 15
  4821                           ;CANlib.h: 1058: if (filter & 0x00040000)
  4822  000C3C  0100               	movlb	0	; () banked
  4823  000C3E  A570               	btfss	(CANSetFilter@filter+2)& (0+255),2,b
  4824  000C40  D003               	goto	l526
  4825                           
  4826                           ; BSR set to: 0
  4827                           ;CANlib.h: 1059: RXF5SIDLbits.SID0 = 0x01;
  4828  000C42  010F               	movlb	15	; () banked
  4829  000C44  8B15               	bsf	21,5,b	;volatile
  4830  000C46  D002               	goto	l527
  4831  000C48                     l526:
  4832                           
  4833                           ; BSR set to: 0
  4834                           ;CANlib.h: 1060: else
  4835                           ;CANlib.h: 1061: RXF5SIDLbits.SID0 = 0x00;
  4836  000C48  010F               	movlb	15	; () banked
  4837  000C4A  9B15               	bcf	21,5,b	;volatile
  4838  000C4C                     l527:
  4839                           
  4840                           ; BSR set to: 15
  4841                           ;CANlib.h: 1063: if (filter & 0x00080000)
  4842  000C4C  0100               	movlb	0	; () banked
  4843  000C4E  A770               	btfss	(CANSetFilter@filter+2)& (0+255),3,b
  4844  000C50  D003               	goto	l528
  4845                           
  4846                           ; BSR set to: 0
  4847                           ;CANlib.h: 1064: RXF5SIDLbits.SID1 = 0x01;
  4848  000C52  010F               	movlb	15	; () banked
  4849  000C54  8D15               	bsf	21,6,b	;volatile
  4850  000C56  D002               	goto	l529
  4851  000C58                     l528:
  4852                           
  4853                           ; BSR set to: 0
  4854                           ;CANlib.h: 1065: else
  4855                           ;CANlib.h: 1066: RXF5SIDLbits.SID1 = 0x00;
  4856  000C58  010F               	movlb	15	; () banked
  4857  000C5A  9D15               	bcf	21,6,b	;volatile
  4858  000C5C                     l529:
  4859                           
  4860                           ; BSR set to: 15
  4861                           ;CANlib.h: 1068: if (filter & 0x00100000)
  4862  000C5C  0100               	movlb	0	; () banked
  4863  000C5E  A970               	btfss	(CANSetFilter@filter+2)& (0+255),4,b
  4864  000C60  D003               	goto	l530
  4865                           
  4866                           ; BSR set to: 0
  4867                           ;CANlib.h: 1069: RXF5SIDLbits.SID2 = 0x01 ;
  4868  000C62  010F               	movlb	15	; () banked
  4869  000C64  8F15               	bsf	21,7,b	;volatile
  4870  000C66  D002               	goto	l4364
  4871  000C68                     l530:
  4872                           
  4873                           ; BSR set to: 0
  4874                           ;CANlib.h: 1070: else
  4875                           ;CANlib.h: 1071: RXF5SIDLbits.SID2 = 0x00 ;
  4876  000C68  010F               	movlb	15	; () banked
  4877  000C6A  9F15               	bcf	21,7,b	;volatile
  4878  000C6C                     l4364:
  4879                           
  4880                           ; BSR set to: 15
  4881                           ;CANlib.h: 1073: tamp = (filter >> 21);
  4882  000C6C  C06E  F073         	movff	CANSetFilter@filter,??_CANSetFilter
  4883  000C70  C06F  F074         	movff	CANSetFilter@filter+1,??_CANSetFilter+1
  4884  000C74  C070  F075         	movff	CANSetFilter@filter+2,??_CANSetFilter+2
  4885  000C78  C071  F076         	movff	CANSetFilter@filter+3,??_CANSetFilter+3
  4886  000C7C  0E16               	movlw	22
  4887  000C7E  D006               	goto	u5630
  4888  000C80                     u5635:
  4889  000C80  0100               	movlb	0	; () banked
  4890  000C82  90D8               	bcf	status,0,c
  4891  000C84  3376               	rrcf	(??_CANSetFilter+3)& (0+255),f,b
  4892  000C86  3375               	rrcf	(??_CANSetFilter+2)& (0+255),f,b
  4893  000C88  3374               	rrcf	(??_CANSetFilter+1)& (0+255),f,b
  4894  000C8A  3373               	rrcf	??_CANSetFilter& (0+255),f,b
  4895  000C8C                     u5630:
  4896  000C8C  2EE8               	decfsz	wreg,f,c
  4897  000C8E  D7F8               	goto	u5635
  4898  000C90  C073  F078         	movff	??_CANSetFilter,CANSetFilter@tamp
  4899  000C94  C074  F079         	movff	??_CANSetFilter+1,CANSetFilter@tamp+1
  4900  000C98  C075  F07A         	movff	??_CANSetFilter+2,CANSetFilter@tamp+2
  4901  000C9C  C076  F07B         	movff	??_CANSetFilter+3,CANSetFilter@tamp+3
  4902                           
  4903                           ; BSR set to: 0
  4904                           ;CANlib.h: 1074: tamp = tamp & 0x000000FF;
  4905  000CA0  0100               	movlb	0	; () banked
  4906  000CA2  5178               	movf	CANSetFilter@tamp& (0+255),w,b
  4907  000CA4  0100               	movlb	0	; () banked
  4908  000CA6  6F78               	movwf	CANSetFilter@tamp& (0+255),b
  4909  000CA8  6B79               	clrf	(CANSetFilter@tamp+1)& (0+255),b
  4910  000CAA  6B7A               	clrf	(CANSetFilter@tamp+2)& (0+255),b
  4911  000CAC  6B7B               	clrf	(CANSetFilter@tamp+3)& (0+255),b
  4912                           
  4913                           ; BSR set to: 0
  4914                           ;CANlib.h: 1075: RXF5SIDH = (unsigned char) tamp;
  4915  000CAE  C078  FF14         	movff	CANSetFilter@tamp,3860	;volatile
  4916  000CB2  0012               	return	
  4917  000CB4                     __end_of_CANSetFilter:
  4918                           	opt stack 0
  4919                           tblptru	equ	0xFF8
  4920                           tblptrh	equ	0xFF7
  4921                           tblptrl	equ	0xFF6
  4922                           tablat	equ	0xFF5
  4923                           intcon	equ	0xFF2
  4924                           intcon2	equ	0xFF1
  4925                           postinc0	equ	0xFEE
  4926                           wreg	equ	0xFE8
  4927                           status	equ	0xFD8
  4928                           
  4929 ;; *************** function _CANOperationMode *****************
  4930 ;; Defined at:
  4931 ;;		line 206 in file "CANlib.h"
  4932 ;; Parameters:    Size  Location     Type
  4933 ;;  mode            1    wreg     enum E16838
  4934 ;; Auto vars:     Size  Location     Type
  4935 ;;  mode            1   14[BANK0 ] enum E16838
  4936 ;; Return value:  Size  Location     Type
  4937 ;;		None               void
  4938 ;; Registers used:
  4939 ;;		wreg, status,2, status,0
  4940 ;; Tracked objects:
  4941 ;;		On entry : 0/0
  4942 ;;		On exit  : 0/0
  4943 ;;		Unchanged: 0/0
  4944 ;; Data sizes:     COMRAM   BANK0   BANK1   BANK2
  4945 ;;      Params:         0       0       0       0
  4946 ;;      Locals:         0       1       0       0
  4947 ;;      Temps:          0       0       0       0
  4948 ;;      Totals:         0       1       0       0
  4949 ;;Total ram usage:        1 bytes
  4950 ;; Hardware stack levels used:    1
  4951 ;; Hardware stack levels required when called:    3
  4952 ;; This function calls:
  4953 ;;		Nothing
  4954 ;; This function is called by:
  4955 ;;		_CANInitialize
  4956 ;; This function uses a non-reentrant model
  4957 ;;
  4958                           
  4959                           	psect	text7
  4960  0027CC                     __ptext7:
  4961                           	opt stack 0
  4962  0027CC                     _CANOperationMode:
  4963                           	opt stack 25
  4964                           
  4965                           ; BSR set to: 0
  4966                           ;incstack = 0
  4967                           ;CANOperationMode@mode stored from wreg
  4968  0027CC  0100               	movlb	0	; () banked
  4969  0027CE  6F6E               	movwf	CANOperationMode@mode& (0+255),b
  4970                           
  4971                           ;CANlib.h: 208: CANCON = mode;
  4972  0027D0  C06E  FF6F         	movff	CANOperationMode@mode,3951	;volatile
  4973  0027D4                     l3960:
  4974  0027D4  506E               	movf	3950,w,c	;volatile
  4975  0027D6  0BE0               	andlw	224
  4976  0027D8  0100               	movlb	0	; () banked
  4977  0027DA  196E               	xorwf	CANOperationMode@mode& (0+255),w,b
  4978  0027DC  B4D8               	btfsc	status,2,c
  4979  0027DE  0012               	return	
  4980  0027E0  D7F9               	goto	l3960
  4981  0027E2                     __end_of_CANOperationMode:
  4982                           	opt stack 0
  4983                           tblptru	equ	0xFF8
  4984                           tblptrh	equ	0xFF7
  4985                           tblptrl	equ	0xFF6
  4986                           tablat	equ	0xFF5
  4987                           intcon	equ	0xFF2
  4988                           intcon2	equ	0xFF1
  4989                           postinc0	equ	0xFEE
  4990                           wreg	equ	0xFE8
  4991                           status	equ	0xFD8
  4992                           
  4993 ;; *************** function _battery_measure *****************
  4994 ;; Defined at:
  4995 ;;		line 266 in file "motore.c"
  4996 ;; Parameters:    Size  Location     Type
  4997 ;;		None
  4998 ;; Auto vars:     Size  Location     Type
  4999 ;;		None
  5000 ;; Return value:  Size  Location     Type
  5001 ;;		None               void
  5002 ;; Registers used:
  5003 ;;		wreg, fsr2l, fsr2h, status,2, status,0, prodl, prodh, cstack
  5004 ;; Tracked objects:
  5005 ;;		On entry : 0/0
  5006 ;;		On exit  : 0/0
  5007 ;;		Unchanged: 0/0
  5008 ;; Data sizes:     COMRAM   BANK0   BANK1   BANK2
  5009 ;;      Params:         0       0       0       0
  5010 ;;      Locals:         0       0       0       0
  5011 ;;      Temps:          0       0       0       0
  5012 ;;      Totals:         0       0       0       0
  5013 ;;Total ram usage:        0 bytes
  5014 ;; Hardware stack levels used:    1
  5015 ;; Hardware stack levels required when called:    4
  5016 ;; This function calls:
  5017 ;;		_CANisTxReady
  5018 ;;		_CANsendMessage
  5019 ;;		___awdiv
  5020 ;;		___wmul
  5021 ;; This function is called by:
  5022 ;;		_main
  5023 ;; This function uses a non-reentrant model
  5024 ;;
  5025                           
  5026                           	psect	text8
  5027  00249C                     __ptext8:
  5028                           	opt stack 0
  5029  00249C                     _battery_measure:
  5030                           	opt stack 26
  5031                           
  5032                           ;motore.c: 267: ADCON0bits.GO = 1;
  5033                           
  5034                           ; BSR set to: 0
  5035                           ;incstack = 0
  5036  00249C  82C2               	bsf	4034,1,c	;volatile
  5037  00249E                     l715:
  5038  00249E  B2C2               	btfsc	4034,1,c	;volatile
  5039  0024A0  D7FE               	goto	l715
  5040                           
  5041                           ;motore.c: 269: vBatt = ADRESH;
  5042  0024A2  CFC4 F0AD          	movff	4036,_vBatt	;volatile
  5043  0024A6  0100               	movlb	0	; () banked
  5044  0024A8  6BAE               	clrf	(_vBatt+1)& (0+255),b
  5045                           
  5046                           ; BSR set to: 0
  5047                           ;motore.c: 270: vBatt = (vBatt * 14) / 235;
  5048  0024AA  C0AD  F076         	movff	_vBatt,___wmul@multiplier
  5049  0024AE  C0AE  F077         	movff	_vBatt+1,___wmul@multiplier+1
  5050  0024B2  0E00               	movlw	0
  5051  0024B4  0100               	movlb	0	; () banked
  5052  0024B6  6F79               	movwf	(___wmul@multiplicand+1)& (0+255),b
  5053  0024B8  0E0E               	movlw	14
  5054  0024BA  6F78               	movwf	___wmul@multiplicand& (0+255),b
  5055  0024BC  EC92  F013         	call	___wmul	;wreg free
  5056  0024C0  C076  F06E         	movff	?___wmul,___awdiv@dividend
  5057  0024C4  C077  F06F         	movff	?___wmul+1,___awdiv@dividend+1
  5058  0024C8  0E00               	movlw	0
  5059  0024CA  0100               	movlb	0	; () banked
  5060  0024CC  6F71               	movwf	(___awdiv@divisor+1)& (0+255),b
  5061  0024CE  0EEB               	movlw	235
  5062  0024D0  6F70               	movwf	___awdiv@divisor& (0+255),b
  5063  0024D2  ECA2  F011         	call	___awdiv	;wreg free
  5064  0024D6  C06E  F0AD         	movff	?___awdiv,_vBatt
  5065  0024DA  C06F  F0AE         	movff	?___awdiv+1,_vBatt+1
  5066                           
  5067                           ;motore.c: 271: if (vBatt < 10) {
  5068  0024DE  0100               	movlb	0	; () banked
  5069  0024E0  BFAE               	btfsc	(_vBatt+1)& (0+255),7,b
  5070  0024E2  D008               	goto	l4882
  5071  0024E4  0100               	movlb	0	; () banked
  5072  0024E6  51AE               	movf	(_vBatt+1)& (0+255),w,b
  5073  0024E8  E122               	bnz	l722
  5074  0024EA  0E0A               	movlw	10
  5075  0024EC  0100               	movlb	0	; () banked
  5076  0024EE  5DAD               	subwf	_vBatt& (0+255),w,b
  5077  0024F0  B0D8               	btfsc	status,0,c
  5078  0024F2  0012               	return	
  5079  0024F4                     l4882:
  5080  0024F4  ECC3  F013         	call	_CANisTxReady	;wreg free
  5081  0024F8  0900               	iorlw	0
  5082  0024FA  B4D8               	btfsc	status,2,c
  5083  0024FC  D7FB               	goto	l4882
  5084                           
  5085                           ;motore.c: 274: CANsendMessage(0b00000000000000000000000001001, data_array, 8, CAN_CONFI
      +                          G_STD_MSG & CAN_REMOTE_TX_FRAME & CAN_TX_PRIORITY_0);
  5086  0024FE  0E09               	movlw	9
  5087  002500  0100               	movlb	0	; () banked
  5088  002502  6F6E               	movwf	CANsendMessage@identifier& (0+255),b
  5089  002504  0E00               	movlw	0
  5090  002506  6F6F               	movwf	(CANsendMessage@identifier+1)& (0+255),b
  5091  002508  0E00               	movlw	0
  5092  00250A  6F70               	movwf	(CANsendMessage@identifier+2)& (0+255),b
  5093  00250C  0E00               	movlw	0
  5094  00250E  6F71               	movwf	(CANsendMessage@identifier+3)& (0+255),b
  5095  002510  0EB4               	movlw	low _data_array
  5096  002512  0100               	movlb	0	; () banked
  5097  002514  6F72               	movwf	CANsendMessage@data& (0+255),b
  5098  002516  0E00               	movlw	high _data_array
  5099  002518  0100               	movlb	0	; () banked
  5100  00251A  6F73               	movwf	(CANsendMessage@data+1)& (0+255),b
  5101  00251C  0E08               	movlw	8
  5102  00251E  0100               	movlb	0	; () banked
  5103  002520  6F74               	movwf	CANsendMessage@dataLength& (0+255),b
  5104  002522  0EFC               	movlw	252
  5105  002524  0100               	movlb	0	; () banked
  5106  002526  6F75               	movwf	CANsendMessage@flags& (0+255),b
  5107  002528  EC5A  F006         	call	_CANsendMessage	;wreg free
  5108  00252C  0012               	return	
  5109  00252E                     l722:
  5110  00252E  0012               	return		;funcret
  5111  002530                     __end_of_battery_measure:
  5112                           	opt stack 0
  5113                           tblptru	equ	0xFF8
  5114                           tblptrh	equ	0xFF7
  5115                           tblptrl	equ	0xFF6
  5116                           tablat	equ	0xFF5
  5117                           intcon	equ	0xFF2
  5118                           intcon2	equ	0xFF1
  5119                           postinc0	equ	0xFEE
  5120                           wreg	equ	0xFE8
  5121                           status	equ	0xFD8
  5122                           
  5123 ;; *************** function ___wmul *****************
  5124 ;; Defined at:
  5125 ;;		line 15 in file "C:\Program Files (x86)\Microchip\xc8\v1.35\sources\common\Umul16.c"
  5126 ;; Parameters:    Size  Location     Type
  5127 ;;  multiplier      2   22[BANK0 ] unsigned int 
  5128 ;;  multiplicand    2   24[BANK0 ] unsigned int 
  5129 ;; Auto vars:     Size  Location     Type
  5130 ;;  product         2   26[BANK0 ] unsigned int 
  5131 ;; Return value:  Size  Location     Type
  5132 ;;                  2   22[BANK0 ] unsigned int 
  5133 ;; Registers used:
  5134 ;;		wreg, status,2, status,0, prodl, prodh
  5135 ;; Tracked objects:
  5136 ;;		On entry : 0/0
  5137 ;;		On exit  : 0/0
  5138 ;;		Unchanged: 0/0
  5139 ;; Data sizes:     COMRAM   BANK0   BANK1   BANK2
  5140 ;;      Params:         0       4       0       0
  5141 ;;      Locals:         0       2       0       0
  5142 ;;      Temps:          0       0       0       0
  5143 ;;      Totals:         0       6       0       0
  5144 ;;Total ram usage:        6 bytes
  5145 ;; Hardware stack levels used:    1
  5146 ;; Hardware stack levels required when called:    3
  5147 ;; This function calls:
  5148 ;;		Nothing
  5149 ;; This function is called by:
  5150 ;;		_delay_ms
  5151 ;;		_main
  5152 ;;		_battery_measure
  5153 ;; This function uses a non-reentrant model
  5154 ;;
  5155                           
  5156                           	psect	text9
  5157  002724                     __ptext9:
  5158                           	opt stack 0
  5159  002724                     ___wmul:
  5160                           	opt stack 26
  5161                           
  5162                           ;incstack = 0
  5163  002724  0100               	movlb	0	; () banked
  5164  002726  5176               	movf	___wmul@multiplier& (0+255),w,b
  5165  002728  0100               	movlb	0	; () banked
  5166  00272A  0378               	mulwf	___wmul@multiplicand& (0+255),b
  5167  00272C  CFF3 F07A          	movff	prodl,___wmul@product
  5168  002730  CFF4 F07B          	movff	prodh,___wmul@product+1
  5169  002734  0100               	movlb	0	; () banked
  5170  002736  5176               	movf	___wmul@multiplier& (0+255),w,b
  5171  002738  0100               	movlb	0	; () banked
  5172  00273A  0379               	mulwf	(___wmul@multiplicand+1)& (0+255),b
  5173  00273C  50F3               	movf	prodl,w,c
  5174  00273E  0100               	movlb	0	; () banked
  5175  002740  277B               	addwf	(___wmul@product+1)& (0+255),f,b
  5176  002742  0100               	movlb	0	; () banked
  5177  002744  5177               	movf	(___wmul@multiplier+1)& (0+255),w,b
  5178  002746  0100               	movlb	0	; () banked
  5179  002748  0378               	mulwf	___wmul@multiplicand& (0+255),b
  5180  00274A  50F3               	movf	prodl,w,c
  5181  00274C  0100               	movlb	0	; () banked
  5182  00274E  277B               	addwf	(___wmul@product+1)& (0+255),f,b
  5183                           
  5184                           ; BSR set to: 0
  5185  002750  C07A  F076         	movff	___wmul@product,?___wmul
  5186  002754  C07B  F077         	movff	___wmul@product+1,?___wmul+1
  5187  002758  0012               	return	
  5188  00275A                     __end_of___wmul:
  5189                           	opt stack 0
  5190                           tblptru	equ	0xFF8
  5191                           tblptrh	equ	0xFF7
  5192                           tblptrl	equ	0xFF6
  5193                           tablat	equ	0xFF5
  5194                           prodh	equ	0xFF4
  5195                           prodl	equ	0xFF3
  5196                           intcon	equ	0xFF2
  5197                           intcon2	equ	0xFF1
  5198                           postinc0	equ	0xFEE
  5199                           wreg	equ	0xFE8
  5200                           status	equ	0xFD8
  5201                           
  5202 ;; *************** function ___awdiv *****************
  5203 ;; Defined at:
  5204 ;;		line 8 in file "C:\Program Files (x86)\Microchip\xc8\v1.35\sources\common\awdiv.c"
  5205 ;; Parameters:    Size  Location     Type
  5206 ;;  dividend        2   14[BANK0 ] int 
  5207 ;;  divisor         2   16[BANK0 ] int 
  5208 ;; Auto vars:     Size  Location     Type
  5209 ;;  quotient        2   20[BANK0 ] int 
  5210 ;;  sign            1   19[BANK0 ] unsigned char 
  5211 ;;  counter         1   18[BANK0 ] unsigned char 
  5212 ;; Return value:  Size  Location     Type
  5213 ;;                  2   14[BANK0 ] int 
  5214 ;; Registers used:
  5215 ;;		wreg, status,2, status,0
  5216 ;; Tracked objects:
  5217 ;;		On entry : 0/0
  5218 ;;		On exit  : 0/0
  5219 ;;		Unchanged: 0/0
  5220 ;; Data sizes:     COMRAM   BANK0   BANK1   BANK2
  5221 ;;      Params:         0       4       0       0
  5222 ;;      Locals:         0       4       0       0
  5223 ;;      Temps:          0       0       0       0
  5224 ;;      Totals:         0       8       0       0
  5225 ;;Total ram usage:        8 bytes
  5226 ;; Hardware stack levels used:    1
  5227 ;; Hardware stack levels required when called:    3
  5228 ;; This function calls:
  5229 ;;		Nothing
  5230 ;; This function is called by:
  5231 ;;		_main
  5232 ;;		_battery_measure
  5233 ;; This function uses a non-reentrant model
  5234 ;;
  5235                           
  5236                           	psect	text10
  5237  002344                     __ptext10:
  5238                           	opt stack 0
  5239  002344                     ___awdiv:
  5240                           	opt stack 26
  5241                           
  5242                           ; BSR set to: 0
  5243                           ;incstack = 0
  5244  002344  0E00               	movlw	0
  5245  002346  0100               	movlb	0	; () banked
  5246  002348  6F73               	movwf	___awdiv@sign& (0+255),b
  5247                           
  5248                           ; BSR set to: 0
  5249  00234A  0100               	movlb	0	; () banked
  5250  00234C  AF71               	btfss	(___awdiv@divisor+1)& (0+255),7,b
  5251  00234E  D008               	goto	l4678
  5252                           
  5253                           ; BSR set to: 0
  5254  002350  0100               	movlb	0	; () banked
  5255  002352  6D70               	negf	___awdiv@divisor& (0+255),b
  5256  002354  1F71               	comf	(___awdiv@divisor+1)& (0+255),f,b
  5257  002356  B0D8               	btfsc	status,0,c
  5258  002358  2B71               	incf	(___awdiv@divisor+1)& (0+255),f,b
  5259                           
  5260                           ; BSR set to: 0
  5261  00235A  0E01               	movlw	1
  5262  00235C  0100               	movlb	0	; () banked
  5263  00235E  6F73               	movwf	___awdiv@sign& (0+255),b
  5264  002360                     l4678:
  5265                           
  5266                           ; BSR set to: 0
  5267  002360  0100               	movlb	0	; () banked
  5268  002362  AF6F               	btfss	(___awdiv@dividend+1)& (0+255),7,b
  5269  002364  D008               	goto	l4684
  5270                           
  5271                           ; BSR set to: 0
  5272  002366  0100               	movlb	0	; () banked
  5273  002368  6D6E               	negf	___awdiv@dividend& (0+255),b
  5274  00236A  1F6F               	comf	(___awdiv@dividend+1)& (0+255),f,b
  5275  00236C  B0D8               	btfsc	status,0,c
  5276  00236E  2B6F               	incf	(___awdiv@dividend+1)& (0+255),f,b
  5277                           
  5278                           ; BSR set to: 0
  5279  002370  0E01               	movlw	1
  5280  002372  0100               	movlb	0	; () banked
  5281  002374  1B73               	xorwf	___awdiv@sign& (0+255),f,b
  5282  002376                     l4684:
  5283                           
  5284                           ; BSR set to: 0
  5285  002376  0E00               	movlw	0
  5286  002378  0100               	movlb	0	; () banked
  5287  00237A  6F75               	movwf	(___awdiv@quotient+1)& (0+255),b
  5288  00237C  0E00               	movlw	0
  5289  00237E  6F74               	movwf	___awdiv@quotient& (0+255),b
  5290                           
  5291                           ; BSR set to: 0
  5292  002380  0100               	movlb	0	; () banked
  5293  002382  5170               	movf	___awdiv@divisor& (0+255),w,b
  5294  002384  0100               	movlb	0	; () banked
  5295  002386  1171               	iorwf	(___awdiv@divisor+1)& (0+255),w,b
  5296  002388  B4D8               	btfsc	status,2,c
  5297  00238A  D02C               	goto	l4706
  5298                           
  5299                           ; BSR set to: 0
  5300  00238C  0E01               	movlw	1
  5301  00238E  0100               	movlb	0	; () banked
  5302  002390  6F72               	movwf	___awdiv@counter& (0+255),b
  5303  002392  D006               	goto	l4692
  5304  002394                     l4690:
  5305                           
  5306                           ; BSR set to: 0
  5307  002394  0100               	movlb	0	; () banked
  5308  002396  90D8               	bcf	status,0,c
  5309  002398  3770               	rlcf	___awdiv@divisor& (0+255),f,b
  5310  00239A  3771               	rlcf	(___awdiv@divisor+1)& (0+255),f,b
  5311  00239C  0100               	movlb	0	; () banked
  5312  00239E  2B72               	incf	___awdiv@counter& (0+255),f,b
  5313  0023A0                     l4692:
  5314                           
  5315                           ; BSR set to: 0
  5316  0023A0  0100               	movlb	0	; () banked
  5317  0023A2  AF71               	btfss	(___awdiv@divisor+1)& (0+255),7,b
  5318  0023A4  D7F7               	goto	l4690
  5319  0023A6                     l4694:
  5320                           
  5321                           ; BSR set to: 0
  5322  0023A6  0100               	movlb	0	; () banked
  5323  0023A8  90D8               	bcf	status,0,c
  5324  0023AA  3774               	rlcf	___awdiv@quotient& (0+255),f,b
  5325  0023AC  3775               	rlcf	(___awdiv@quotient+1)& (0+255),f,b
  5326                           
  5327                           ; BSR set to: 0
  5328  0023AE  0100               	movlb	0	; () banked
  5329  0023B0  5170               	movf	___awdiv@divisor& (0+255),w,b
  5330  0023B2  0100               	movlb	0	; () banked
  5331  0023B4  5D6E               	subwf	___awdiv@dividend& (0+255),w,b
  5332  0023B6  0100               	movlb	0	; () banked
  5333  0023B8  5171               	movf	(___awdiv@divisor+1)& (0+255),w,b
  5334  0023BA  0100               	movlb	0	; () banked
  5335  0023BC  596F               	subwfb	(___awdiv@dividend+1)& (0+255),w,b
  5336  0023BE  A0D8               	btfss	status,0,c
  5337  0023C0  D00A               	goto	l4702
  5338                           
  5339                           ; BSR set to: 0
  5340  0023C2  0100               	movlb	0	; () banked
  5341  0023C4  5170               	movf	___awdiv@divisor& (0+255),w,b
  5342  0023C6  0100               	movlb	0	; () banked
  5343  0023C8  5F6E               	subwf	___awdiv@dividend& (0+255),f,b
  5344  0023CA  0100               	movlb	0	; () banked
  5345  0023CC  5171               	movf	(___awdiv@divisor+1)& (0+255),w,b
  5346  0023CE  0100               	movlb	0	; () banked
  5347  0023D0  5B6F               	subwfb	(___awdiv@dividend+1)& (0+255),f,b
  5348                           
  5349                           ; BSR set to: 0
  5350  0023D2  0100               	movlb	0	; () banked
  5351  0023D4  8174               	bsf	___awdiv@quotient& (0+255),0,b
  5352  0023D6                     l4702:
  5353                           
  5354                           ; BSR set to: 0
  5355  0023D6  0100               	movlb	0	; () banked
  5356  0023D8  90D8               	bcf	status,0,c
  5357  0023DA  3371               	rrcf	(___awdiv@divisor+1)& (0+255),f,b
  5358  0023DC  3370               	rrcf	___awdiv@divisor& (0+255),f,b
  5359                           
  5360                           ; BSR set to: 0
  5361  0023DE  0100               	movlb	0	; () banked
  5362  0023E0  2F72               	decfsz	___awdiv@counter& (0+255),f,b
  5363  0023E2  D7E1               	goto	l4694
  5364  0023E4                     l4706:
  5365                           
  5366                           ; BSR set to: 0
  5367  0023E4  0100               	movlb	0	; () banked
  5368  0023E6  5173               	movf	___awdiv@sign& (0+255),w,b
  5369  0023E8  0100               	movlb	0	; () banked
  5370  0023EA  B4D8               	btfsc	status,2,c
  5371  0023EC  D005               	goto	l4710
  5372                           
  5373                           ; BSR set to: 0
  5374  0023EE  0100               	movlb	0	; () banked
  5375  0023F0  6D74               	negf	___awdiv@quotient& (0+255),b
  5376  0023F2  1F75               	comf	(___awdiv@quotient+1)& (0+255),f,b
  5377  0023F4  B0D8               	btfsc	status,0,c
  5378  0023F6  2B75               	incf	(___awdiv@quotient+1)& (0+255),f,b
  5379  0023F8                     l4710:
  5380                           
  5381                           ; BSR set to: 0
  5382  0023F8  C074  F06E         	movff	___awdiv@quotient,?___awdiv
  5383  0023FC  C075  F06F         	movff	___awdiv@quotient+1,?___awdiv+1
  5384  002400  0012               	return	
  5385  002402                     __end_of___awdiv:
  5386                           	opt stack 0
  5387                           tblptru	equ	0xFF8
  5388                           tblptrh	equ	0xFF7
  5389                           tblptrl	equ	0xFF6
  5390                           tablat	equ	0xFF5
  5391                           prodh	equ	0xFF4
  5392                           prodl	equ	0xFF3
  5393                           intcon	equ	0xFF2
  5394                           intcon2	equ	0xFF1
  5395                           postinc0	equ	0xFEE
  5396                           wreg	equ	0xFE8
  5397                           status	equ	0xFD8
  5398                           
  5399 ;; *************** function _CANsendMessage *****************
  5400 ;; Defined at:
  5401 ;;		line 294 in file "CANlib.h"
  5402 ;; Parameters:    Size  Location     Type
  5403 ;;  identifier      4   14[BANK0 ] unsigned long 
  5404 ;;  data            2   18[BANK0 ] PTR unsigned char 
  5405 ;;		 -> data_array(8), NULL(0), 
  5406 ;;  dataLength      1   20[BANK0 ] unsigned char 
  5407 ;;  flags           1   21[BANK0 ] enum E16866
  5408 ;; Auto vars:     Size  Location     Type
  5409 ;;  tamp            4   26[BANK0 ] unsigned long 
  5410 ;; Return value:  Size  Location     Type
  5411 ;;		None               void
  5412 ;; Registers used:
  5413 ;;		wreg, fsr2l, fsr2h, status,2, status,0
  5414 ;; Tracked objects:
  5415 ;;		On entry : 0/0
  5416 ;;		On exit  : 0/0
  5417 ;;		Unchanged: 0/0
  5418 ;; Data sizes:     COMRAM   BANK0   BANK1   BANK2
  5419 ;;      Params:         0       8       0       0
  5420 ;;      Locals:         0       4       0       0
  5421 ;;      Temps:          0       4       0       0
  5422 ;;      Totals:         0      16       0       0
  5423 ;;Total ram usage:       16 bytes
  5424 ;; Hardware stack levels used:    1
  5425 ;; Hardware stack levels required when called:    3
  5426 ;; This function calls:
  5427 ;;		Nothing
  5428 ;; This function is called by:
  5429 ;;		_main
  5430 ;;		_send_data
  5431 ;;		_battery_measure
  5432 ;; This function uses a non-reentrant model
  5433 ;;
  5434                           
  5435                           	psect	text11
  5436  000CB4                     __ptext11:
  5437                           	opt stack 0
  5438  000CB4                     _CANsendMessage:
  5439                           	opt stack 26
  5440                           
  5441                           ;CANlib.h: 296: unsigned long tamp;
  5442                           ;CANlib.h: 298: if (TXB0CONbits.TXREQ == 0)
  5443                           
  5444                           ; BSR set to: 0
  5445                           ;incstack = 0
  5446  000CB4  010F               	movlb	15	; () banked
  5447  000CB6  B740               	btfsc	64,3,b	;volatile
  5448  000CB8  D13F               	goto	l367
  5449                           
  5450                           ; BSR set to: 15
  5451                           ;CANlib.h: 299: { TXB0DLC = dataLength;
  5452  000CBA  C074  FF45         	movff	CANsendMessage@dataLength,3909	;volatile
  5453                           
  5454                           ;CANlib.h: 300: if (0b01000000 & flags)
  5455  000CBE  0100               	movlb	0	; () banked
  5456  000CC0  AD75               	btfss	CANsendMessage@flags& (0+255),6,b
  5457  000CC2  D003               	goto	l368
  5458                           
  5459                           ; BSR set to: 0
  5460                           ;CANlib.h: 301: TXB0DLCbits.TXRTR = 0x01;
  5461  000CC4  010F               	movlb	15	; () banked
  5462  000CC6  8D45               	bsf	69,6,b	;volatile
  5463  000CC8  D002               	goto	l369
  5464  000CCA                     l368:
  5465                           
  5466                           ; BSR set to: 0
  5467                           ;CANlib.h: 302: else
  5468                           ;CANlib.h: 303: TXB0DLCbits.TXRTR = 0x00;
  5469  000CCA  010F               	movlb	15	; () banked
  5470  000CCC  9D45               	bcf	69,6,b	;volatile
  5471  000CCE                     l369:
  5472                           
  5473                           ; BSR set to: 15
  5474                           ;CANlib.h: 305: if (CAN_TX_FRAME_MASK & flags)
  5475  000CCE  0100               	movlb	0	; () banked
  5476  000CD0  A775               	btfss	CANsendMessage@flags& (0+255),3,b
  5477  000CD2  D079               	goto	l370
  5478                           
  5479                           ; BSR set to: 0
  5480                           ;CANlib.h: 306: {
  5481                           ;CANlib.h: 308: tamp = identifier & 0x000000FF;
  5482  000CD4  0100               	movlb	0	; () banked
  5483  000CD6  516E               	movf	CANsendMessage@identifier& (0+255),w,b
  5484  000CD8  0100               	movlb	0	; () banked
  5485  000CDA  6F7A               	movwf	CANsendMessage@tamp& (0+255),b
  5486  000CDC  6B7B               	clrf	(CANsendMessage@tamp+1)& (0+255),b
  5487  000CDE  6B7C               	clrf	(CANsendMessage@tamp+2)& (0+255),b
  5488  000CE0  6B7D               	clrf	(CANsendMessage@tamp+3)& (0+255),b
  5489                           
  5490                           ; BSR set to: 0
  5491                           ;CANlib.h: 309: TXB0EIDL = (unsigned char) tamp;
  5492  000CE2  C07A  FF44         	movff	CANsendMessage@tamp,3908	;volatile
  5493                           
  5494                           ; BSR set to: 0
  5495                           ;CANlib.h: 311: tamp = identifier & 0x0000FF00;
  5496  000CE6  0E00               	movlw	0
  5497  000CE8  0100               	movlb	0	; () banked
  5498  000CEA  156E               	andwf	CANsendMessage@identifier& (0+255),w,b
  5499  000CEC  0100               	movlb	0	; () banked
  5500  000CEE  6F7A               	movwf	CANsendMessage@tamp& (0+255),b
  5501  000CF0  0EFF               	movlw	255
  5502  000CF2  0100               	movlb	0	; () banked
  5503  000CF4  156F               	andwf	(CANsendMessage@identifier+1)& (0+255),w,b
  5504  000CF6  0100               	movlb	0	; () banked
  5505  000CF8  6F7B               	movwf	(CANsendMessage@tamp+1)& (0+255),b
  5506  000CFA  0E00               	movlw	0
  5507  000CFC  0100               	movlb	0	; () banked
  5508  000CFE  1570               	andwf	(CANsendMessage@identifier+2)& (0+255),w,b
  5509  000D00  0100               	movlb	0	; () banked
  5510  000D02  6F7C               	movwf	(CANsendMessage@tamp+2)& (0+255),b
  5511  000D04  0E00               	movlw	0
  5512  000D06  0100               	movlb	0	; () banked
  5513  000D08  1571               	andwf	(CANsendMessage@identifier+3)& (0+255),w,b
  5514  000D0A  0100               	movlb	0	; () banked
  5515  000D0C  6F7D               	movwf	(CANsendMessage@tamp+3)& (0+255),b
  5516                           
  5517                           ; BSR set to: 0
  5518                           ;CANlib.h: 312: tamp = tamp >> 8;
  5519  000D0E  C07A  F076         	movff	CANsendMessage@tamp,??_CANsendMessage
  5520  000D12  C07B  F077         	movff	CANsendMessage@tamp+1,??_CANsendMessage+1
  5521  000D16  C07C  F078         	movff	CANsendMessage@tamp+2,??_CANsendMessage+2
  5522  000D1A  C07D  F079         	movff	CANsendMessage@tamp+3,??_CANsendMessage+3
  5523  000D1E  C077  F076         	movff	??_CANsendMessage+1,??_CANsendMessage
  5524  000D22  C078  F077         	movff	??_CANsendMessage+2,??_CANsendMessage+1
  5525  000D26  C079  F078         	movff	??_CANsendMessage+3,??_CANsendMessage+2
  5526  000D2A  0100               	movlb	0	; () banked
  5527  000D2C  6B79               	clrf	(??_CANsendMessage+3)& (0+255),b
  5528  000D2E  C076  F07A         	movff	??_CANsendMessage,CANsendMessage@tamp
  5529  000D32  C077  F07B         	movff	??_CANsendMessage+1,CANsendMessage@tamp+1
  5530  000D36  C078  F07C         	movff	??_CANsendMessage+2,CANsendMessage@tamp+2
  5531  000D3A  C079  F07D         	movff	??_CANsendMessage+3,CANsendMessage@tamp+3
  5532                           
  5533                           ; BSR set to: 0
  5534                           ;CANlib.h: 313: TXB0EIDH = (unsigned char) tamp;
  5535  000D3E  C07A  FF43         	movff	CANsendMessage@tamp,3907	;volatile
  5536                           
  5537                           ; BSR set to: 0
  5538                           ;CANlib.h: 315: TXB0SIDL = 0x00;
  5539  000D42  0E00               	movlw	0
  5540  000D44  010F               	movlb	15	; () banked
  5541  000D46  6F42               	movwf	66,b	;volatile
  5542                           
  5543                           ; BSR set to: 15
  5544                           ;CANlib.h: 316: TXB0SIDLbits.EXIDE = 0x01;
  5545  000D48  010F               	movlb	15	; () banked
  5546  000D4A  8742               	bsf	66,3,b	;volatile
  5547                           
  5548                           ; BSR set to: 15
  5549                           ;CANlib.h: 318: if (identifier & 0x00010000)
  5550  000D4C  0100               	movlb	0	; () banked
  5551  000D4E  A170               	btfss	(CANsendMessage@identifier+2)& (0+255),0,b
  5552  000D50  D002               	goto	l371
  5553                           
  5554                           ; BSR set to: 0
  5555                           ;CANlib.h: 319: TXB0SIDLbits.EID16 = 0x01;
  5556  000D52  010F               	movlb	15	; () banked
  5557  000D54  8142               	bsf	66,0,b	;volatile
  5558  000D56                     l371:
  5559                           
  5560                           ;CANlib.h: 320: if (identifier & 0x00020000)
  5561  000D56  0100               	movlb	0	; () banked
  5562  000D58  A370               	btfss	(CANsendMessage@identifier+2)& (0+255),1,b
  5563  000D5A  D002               	goto	l372
  5564                           
  5565                           ; BSR set to: 0
  5566                           ;CANlib.h: 321: TXB0SIDLbits.EID17 = 0x01;
  5567  000D5C  010F               	movlb	15	; () banked
  5568  000D5E  8342               	bsf	66,1,b	;volatile
  5569  000D60                     l372:
  5570                           
  5571                           ;CANlib.h: 322: if (identifier & 0x00040000)
  5572  000D60  0100               	movlb	0	; () banked
  5573  000D62  A570               	btfss	(CANsendMessage@identifier+2)& (0+255),2,b
  5574  000D64  D002               	goto	l373
  5575                           
  5576                           ; BSR set to: 0
  5577                           ;CANlib.h: 323: TXB0SIDLbits.SID0 = 0x01;
  5578  000D66  010F               	movlb	15	; () banked
  5579  000D68  8B42               	bsf	66,5,b	;volatile
  5580  000D6A                     l373:
  5581                           
  5582                           ;CANlib.h: 324: if (identifier & 0x00080000)
  5583  000D6A  0100               	movlb	0	; () banked
  5584  000D6C  A770               	btfss	(CANsendMessage@identifier+2)& (0+255),3,b
  5585  000D6E  D002               	goto	l374
  5586                           
  5587                           ; BSR set to: 0
  5588                           ;CANlib.h: 325: TXB0SIDLbits.SID1 = 0x01;
  5589  000D70  010F               	movlb	15	; () banked
  5590  000D72  8D42               	bsf	66,6,b	;volatile
  5591  000D74                     l374:
  5592                           
  5593                           ;CANlib.h: 326: if (identifier & 0x00100000)
  5594  000D74  0100               	movlb	0	; () banked
  5595  000D76  A970               	btfss	(CANsendMessage@identifier+2)& (0+255),4,b
  5596  000D78  D002               	goto	l4454
  5597                           
  5598                           ; BSR set to: 0
  5599                           ;CANlib.h: 327: TXB0SIDLbits.SID2 = 0x01;
  5600  000D7A  010F               	movlb	15	; () banked
  5601  000D7C  8F42               	bsf	66,7,b	;volatile
  5602  000D7E                     l4454:
  5603                           
  5604                           ;CANlib.h: 329: tamp = (identifier >> 21);
  5605  000D7E  C06E  F076         	movff	CANsendMessage@identifier,??_CANsendMessage
  5606  000D82  C06F  F077         	movff	CANsendMessage@identifier+1,??_CANsendMessage+1
  5607  000D86  C070  F078         	movff	CANsendMessage@identifier+2,??_CANsendMessage+2
  5608  000D8A  C071  F079         	movff	CANsendMessage@identifier+3,??_CANsendMessage+3
  5609  000D8E  0E16               	movlw	22
  5610  000D90  D006               	goto	u5760
  5611  000D92                     u5765:
  5612  000D92  0100               	movlb	0	; () banked
  5613  000D94  90D8               	bcf	status,0,c
  5614  000D96  3379               	rrcf	(??_CANsendMessage+3)& (0+255),f,b
  5615  000D98  3378               	rrcf	(??_CANsendMessage+2)& (0+255),f,b
  5616  000D9A  3377               	rrcf	(??_CANsendMessage+1)& (0+255),f,b
  5617  000D9C  3376               	rrcf	??_CANsendMessage& (0+255),f,b
  5618  000D9E                     u5760:
  5619  000D9E  2EE8               	decfsz	wreg,f,c
  5620  000DA0  D7F8               	goto	u5765
  5621  000DA2  C076  F07A         	movff	??_CANsendMessage,CANsendMessage@tamp
  5622  000DA6  C077  F07B         	movff	??_CANsendMessage+1,CANsendMessage@tamp+1
  5623  000DAA  C078  F07C         	movff	??_CANsendMessage+2,CANsendMessage@tamp+2
  5624  000DAE  C079  F07D         	movff	??_CANsendMessage+3,CANsendMessage@tamp+3
  5625                           
  5626                           ; BSR set to: 0
  5627                           ;CANlib.h: 330: tamp = tamp & 0x000000FF;
  5628  000DB2  0100               	movlb	0	; () banked
  5629  000DB4  517A               	movf	CANsendMessage@tamp& (0+255),w,b
  5630  000DB6  0100               	movlb	0	; () banked
  5631  000DB8  6F7A               	movwf	CANsendMessage@tamp& (0+255),b
  5632  000DBA  6B7B               	clrf	(CANsendMessage@tamp+1)& (0+255),b
  5633  000DBC  6B7C               	clrf	(CANsendMessage@tamp+2)& (0+255),b
  5634  000DBE  6B7D               	clrf	(CANsendMessage@tamp+3)& (0+255),b
  5635                           
  5636                           ; BSR set to: 0
  5637                           ;CANlib.h: 331: TXB0SIDH = (unsigned char) tamp;
  5638  000DC0  C07A  FF41         	movff	CANsendMessage@tamp,3905	;volatile
  5639                           
  5640                           ;CANlib.h: 332: }
  5641  000DC4  D059               	goto	l4474
  5642  000DC6                     l370:
  5643                           
  5644                           ; BSR set to: 0
  5645                           ;CANlib.h: 334: else
  5646                           ;CANlib.h: 336: {
  5647                           ;CANlib.h: 337: TXB0SIDLbits.EXIDE = 0x00;
  5648  000DC6  010F               	movlb	15	; () banked
  5649  000DC8  9742               	bcf	66,3,b	;volatile
  5650                           
  5651                           ; BSR set to: 15
  5652                           ;CANlib.h: 339: tamp = (identifier >> 3);
  5653  000DCA  C06E  F076         	movff	CANsendMessage@identifier,??_CANsendMessage
  5654  000DCE  C06F  F077         	movff	CANsendMessage@identifier+1,??_CANsendMessage+1
  5655  000DD2  C070  F078         	movff	CANsendMessage@identifier+2,??_CANsendMessage+2
  5656  000DD6  C071  F079         	movff	CANsendMessage@identifier+3,??_CANsendMessage+3
  5657  000DDA  0E04               	movlw	4
  5658  000DDC  D006               	goto	u5770
  5659  000DDE                     u5775:
  5660  000DDE  0100               	movlb	0	; () banked
  5661  000DE0  90D8               	bcf	status,0,c
  5662  000DE2  3379               	rrcf	(??_CANsendMessage+3)& (0+255),f,b
  5663  000DE4  3378               	rrcf	(??_CANsendMessage+2)& (0+255),f,b
  5664  000DE6  3377               	rrcf	(??_CANsendMessage+1)& (0+255),f,b
  5665  000DE8  3376               	rrcf	??_CANsendMessage& (0+255),f,b
  5666  000DEA                     u5770:
  5667  000DEA  2EE8               	decfsz	wreg,f,c
  5668  000DEC  D7F8               	goto	u5775
  5669  000DEE  C076  F07A         	movff	??_CANsendMessage,CANsendMessage@tamp
  5670  000DF2  C077  F07B         	movff	??_CANsendMessage+1,CANsendMessage@tamp+1
  5671  000DF6  C078  F07C         	movff	??_CANsendMessage+2,CANsendMessage@tamp+2
  5672  000DFA  C079  F07D         	movff	??_CANsendMessage+3,CANsendMessage@tamp+3
  5673                           
  5674                           ; BSR set to: 0
  5675                           ;CANlib.h: 340: tamp = tamp & 0x000000FF;
  5676  000DFE  0100               	movlb	0	; () banked
  5677  000E00  517A               	movf	CANsendMessage@tamp& (0+255),w,b
  5678  000E02  0100               	movlb	0	; () banked
  5679  000E04  6F7A               	movwf	CANsendMessage@tamp& (0+255),b
  5680  000E06  6B7B               	clrf	(CANsendMessage@tamp+1)& (0+255),b
  5681  000E08  6B7C               	clrf	(CANsendMessage@tamp+2)& (0+255),b
  5682  000E0A  6B7D               	clrf	(CANsendMessage@tamp+3)& (0+255),b
  5683                           
  5684                           ; BSR set to: 0
  5685                           ;CANlib.h: 341: TXB0SIDH = (unsigned char) tamp;
  5686  000E0C  C07A  FF41         	movff	CANsendMessage@tamp,3905	;volatile
  5687                           
  5688                           ; BSR set to: 0
  5689                           ;CANlib.h: 343: tamp = identifier & 0x00000007;
  5690  000E10  0E07               	movlw	7
  5691  000E12  0100               	movlb	0	; () banked
  5692  000E14  156E               	andwf	CANsendMessage@identifier& (0+255),w,b
  5693  000E16  0100               	movlb	0	; () banked
  5694  000E18  6F7A               	movwf	CANsendMessage@tamp& (0+255),b
  5695  000E1A  0E00               	movlw	0
  5696  000E1C  0100               	movlb	0	; () banked
  5697  000E1E  156F               	andwf	(CANsendMessage@identifier+1)& (0+255),w,b
  5698  000E20  0100               	movlb	0	; () banked
  5699  000E22  6F7B               	movwf	(CANsendMessage@tamp+1)& (0+255),b
  5700  000E24  0E00               	movlw	0
  5701  000E26  0100               	movlb	0	; () banked
  5702  000E28  1570               	andwf	(CANsendMessage@identifier+2)& (0+255),w,b
  5703  000E2A  0100               	movlb	0	; () banked
  5704  000E2C  6F7C               	movwf	(CANsendMessage@tamp+2)& (0+255),b
  5705  000E2E  0E00               	movlw	0
  5706  000E30  0100               	movlb	0	; () banked
  5707  000E32  1571               	andwf	(CANsendMessage@identifier+3)& (0+255),w,b
  5708  000E34  0100               	movlb	0	; () banked
  5709  000E36  6F7D               	movwf	(CANsendMessage@tamp+3)& (0+255),b
  5710                           
  5711                           ; BSR set to: 0
  5712                           ;CANlib.h: 344: tamp = tamp << 5;
  5713  000E38  C07A  F076         	movff	CANsendMessage@tamp,??_CANsendMessage
  5714  000E3C  C07B  F077         	movff	CANsendMessage@tamp+1,??_CANsendMessage+1
  5715  000E40  C07C  F078         	movff	CANsendMessage@tamp+2,??_CANsendMessage+2
  5716  000E44  C07D  F079         	movff	CANsendMessage@tamp+3,??_CANsendMessage+3
  5717  000E48  0E05               	movlw	5
  5718  000E4A                     u5785:
  5719  000E4A  90D8               	bcf	status,0,c
  5720  000E4C  0100               	movlb	0	; () banked
  5721  000E4E  3776               	rlcf	??_CANsendMessage& (0+255),f,b
  5722  000E50  3777               	rlcf	(??_CANsendMessage+1)& (0+255),f,b
  5723  000E52  3778               	rlcf	(??_CANsendMessage+2)& (0+255),f,b
  5724  000E54  3779               	rlcf	(??_CANsendMessage+3)& (0+255),f,b
  5725  000E56  2EE8               	decfsz	wreg,f,c
  5726  000E58  D7F8               	goto	u5785
  5727  000E5A  C076  F07A         	movff	??_CANsendMessage,CANsendMessage@tamp
  5728  000E5E  C077  F07B         	movff	??_CANsendMessage+1,CANsendMessage@tamp+1
  5729  000E62  C078  F07C         	movff	??_CANsendMessage+2,CANsendMessage@tamp+2
  5730  000E66  C079  F07D         	movff	??_CANsendMessage+3,CANsendMessage@tamp+3
  5731                           
  5732                           ; BSR set to: 0
  5733                           ;CANlib.h: 345: TXB0SIDL = TXB0SIDL & 0b00011111;
  5734  000E6A  010F               	movlb	15	; () banked
  5735  000E6C  5142               	movf	66,w,b	;volatile
  5736  000E6E  0B1F               	andlw	31
  5737  000E70  010F               	movlb	15	; () banked
  5738  000E72  6F42               	movwf	66,b	;volatile
  5739                           
  5740                           ; BSR set to: 15
  5741                           ;CANlib.h: 346: TXB0SIDL = (unsigned char) tamp;
  5742  000E74  C07A  FF42         	movff	CANsendMessage@tamp,3906	;volatile
  5743  000E78                     l4474:
  5744                           
  5745                           ;CANlib.h: 347: }
  5746                           ;CANlib.h: 349: if (0b00000001 & flags)
  5747  000E78  0100               	movlb	0	; () banked
  5748  000E7A  A175               	btfss	CANsendMessage@flags& (0+255),0,b
  5749  000E7C  D003               	goto	l377
  5750                           
  5751                           ; BSR set to: 0
  5752                           ;CANlib.h: 350: TXB0CONbits.TXPRI0 = 0x01;
  5753  000E7E  010F               	movlb	15	; () banked
  5754  000E80  8140               	bsf	64,0,b	;volatile
  5755  000E82  D002               	goto	l378
  5756  000E84                     l377:
  5757                           
  5758                           ; BSR set to: 0
  5759                           ;CANlib.h: 351: else
  5760                           ;CANlib.h: 352: TXB0CONbits.TXPRI0 = 0x00;
  5761  000E84  010F               	movlb	15	; () banked
  5762  000E86  9140               	bcf	64,0,b	;volatile
  5763  000E88                     l378:
  5764                           
  5765                           ; BSR set to: 15
  5766                           ;CANlib.h: 353: if (0b00000010 & flags)
  5767  000E88  0100               	movlb	0	; () banked
  5768  000E8A  A375               	btfss	CANsendMessage@flags& (0+255),1,b
  5769  000E8C  D003               	goto	l379
  5770                           
  5771                           ; BSR set to: 0
  5772                           ;CANlib.h: 354: TXB0CONbits.TXPRI1 = 0x01;
  5773  000E8E  010F               	movlb	15	; () banked
  5774  000E90  8340               	bsf	64,1,b	;volatile
  5775  000E92  D002               	goto	l4480
  5776  000E94                     l379:
  5777                           
  5778                           ; BSR set to: 0
  5779                           ;CANlib.h: 355: else
  5780                           ;CANlib.h: 356: TXB0CONbits.TXPRI1 = 0x00;
  5781  000E94  010F               	movlb	15	; () banked
  5782  000E96  9340               	bcf	64,1,b	;volatile
  5783  000E98                     l4480:
  5784                           
  5785                           ; BSR set to: 15
  5786                           ;CANlib.h: 358: TXB0D0 = data[0];
  5787  000E98  C072  FFD9         	movff	CANsendMessage@data,fsr2l
  5788  000E9C  C073  FFDA         	movff	CANsendMessage@data+1,fsr2h
  5789  000EA0  50DF               	movf	indf2,w,c
  5790  000EA2  010F               	movlb	15	; () banked
  5791  000EA4  6F46               	movwf	70,b	;volatile
  5792                           
  5793                           ; BSR set to: 15
  5794                           ;CANlib.h: 359: TXB0D1 = data[1];
  5795  000EA6  0100               	movlb	0	; () banked
  5796  000EA8  EE20 F001          	lfsr	2,1
  5797  000EAC  5172               	movf	CANsendMessage@data& (0+255),w,b
  5798  000EAE  26D9               	addwf	fsr2l,f,c
  5799  000EB0  5173               	movf	(CANsendMessage@data+1)& (0+255),w,b
  5800  000EB2  22DA               	addwfc	fsr2h,f,c
  5801  000EB4  50DF               	movf	indf2,w,c
  5802  000EB6  010F               	movlb	15	; () banked
  5803  000EB8  6F47               	movwf	71,b	;volatile
  5804                           
  5805                           ; BSR set to: 15
  5806                           ;CANlib.h: 360: TXB0D2 = data[2];
  5807  000EBA  0100               	movlb	0	; () banked
  5808  000EBC  EE20 F002          	lfsr	2,2
  5809  000EC0  5172               	movf	CANsendMessage@data& (0+255),w,b
  5810  000EC2  26D9               	addwf	fsr2l,f,c
  5811  000EC4  5173               	movf	(CANsendMessage@data+1)& (0+255),w,b
  5812  000EC6  22DA               	addwfc	fsr2h,f,c
  5813  000EC8  50DF               	movf	indf2,w,c
  5814  000ECA  010F               	movlb	15	; () banked
  5815  000ECC  6F48               	movwf	72,b	;volatile
  5816                           
  5817                           ; BSR set to: 15
  5818                           ;CANlib.h: 361: TXB0D3 = data[3];
  5819  000ECE  0100               	movlb	0	; () banked
  5820  000ED0  EE20 F003          	lfsr	2,3
  5821  000ED4  5172               	movf	CANsendMessage@data& (0+255),w,b
  5822  000ED6  26D9               	addwf	fsr2l,f,c
  5823  000ED8  5173               	movf	(CANsendMessage@data+1)& (0+255),w,b
  5824  000EDA  22DA               	addwfc	fsr2h,f,c
  5825  000EDC  50DF               	movf	indf2,w,c
  5826  000EDE  010F               	movlb	15	; () banked
  5827  000EE0  6F49               	movwf	73,b	;volatile
  5828                           
  5829                           ; BSR set to: 15
  5830                           ;CANlib.h: 362: TXB0D4 = data[4];
  5831  000EE2  0100               	movlb	0	; () banked
  5832  000EE4  EE20 F004          	lfsr	2,4
  5833  000EE8  5172               	movf	CANsendMessage@data& (0+255),w,b
  5834  000EEA  26D9               	addwf	fsr2l,f,c
  5835  000EEC  5173               	movf	(CANsendMessage@data+1)& (0+255),w,b
  5836  000EEE  22DA               	addwfc	fsr2h,f,c
  5837  000EF0  50DF               	movf	indf2,w,c
  5838  000EF2  010F               	movlb	15	; () banked
  5839  000EF4  6F4A               	movwf	74,b	;volatile
  5840                           
  5841                           ; BSR set to: 15
  5842                           ;CANlib.h: 363: TXB0D5 = data[5];
  5843  000EF6  0100               	movlb	0	; () banked
  5844  000EF8  EE20 F005          	lfsr	2,5
  5845  000EFC  5172               	movf	CANsendMessage@data& (0+255),w,b
  5846  000EFE  26D9               	addwf	fsr2l,f,c
  5847  000F00  5173               	movf	(CANsendMessage@data+1)& (0+255),w,b
  5848  000F02  22DA               	addwfc	fsr2h,f,c
  5849  000F04  50DF               	movf	indf2,w,c
  5850  000F06  010F               	movlb	15	; () banked
  5851  000F08  6F4B               	movwf	75,b	;volatile
  5852                           
  5853                           ; BSR set to: 15
  5854                           ;CANlib.h: 364: TXB0D6 = data[6];
  5855  000F0A  0100               	movlb	0	; () banked
  5856  000F0C  EE20 F006          	lfsr	2,6
  5857  000F10  5172               	movf	CANsendMessage@data& (0+255),w,b
  5858  000F12  26D9               	addwf	fsr2l,f,c
  5859  000F14  5173               	movf	(CANsendMessage@data+1)& (0+255),w,b
  5860  000F16  22DA               	addwfc	fsr2h,f,c
  5861  000F18  50DF               	movf	indf2,w,c
  5862  000F1A  010F               	movlb	15	; () banked
  5863  000F1C  6F4C               	movwf	76,b	;volatile
  5864                           
  5865                           ; BSR set to: 15
  5866                           ;CANlib.h: 365: TXB0D7 = data[7];
  5867  000F1E  0100               	movlb	0	; () banked
  5868  000F20  EE20 F007          	lfsr	2,7
  5869  000F24  5172               	movf	CANsendMessage@data& (0+255),w,b
  5870  000F26  26D9               	addwf	fsr2l,f,c
  5871  000F28  5173               	movf	(CANsendMessage@data+1)& (0+255),w,b
  5872  000F2A  22DA               	addwfc	fsr2h,f,c
  5873  000F2C  50DF               	movf	indf2,w,c
  5874  000F2E  010F               	movlb	15	; () banked
  5875  000F30  6F4D               	movwf	77,b	;volatile
  5876                           
  5877                           ; BSR set to: 15
  5878                           ;CANlib.h: 367: TXB0CONbits.TXREQ = 0x01;
  5879  000F32  010F               	movlb	15	; () banked
  5880  000F34  8740               	bsf	64,3,b	;volatile
  5881                           
  5882                           ; BSR set to: 15
  5883                           ;CANlib.h: 368: return;
  5884  000F36  0012               	return	
  5885  000F38                     l367:
  5886                           
  5887                           ; BSR set to: 15
  5888                           ;CANlib.h: 369: }
  5889                           ;CANlib.h: 373: if (TXB1CONbits.TXREQ == 0)
  5890  000F38  010F               	movlb	15	; () banked
  5891  000F3A  B730               	btfsc	48,3,b	;volatile
  5892  000F3C  D13F               	goto	l382
  5893                           
  5894                           ; BSR set to: 15
  5895                           ;CANlib.h: 374: { TXB1DLC = dataLength;
  5896  000F3E  C074  FF35         	movff	CANsendMessage@dataLength,3893	;volatile
  5897                           
  5898                           ;CANlib.h: 376: if (0b01000000 & flags)
  5899  000F42  0100               	movlb	0	; () banked
  5900  000F44  AD75               	btfss	CANsendMessage@flags& (0+255),6,b
  5901  000F46  D003               	goto	l383
  5902                           
  5903                           ; BSR set to: 0
  5904                           ;CANlib.h: 377: TXB1DLCbits.TXRTR = 0x01;
  5905  000F48  010F               	movlb	15	; () banked
  5906  000F4A  8D35               	bsf	53,6,b	;volatile
  5907  000F4C  D002               	goto	l384
  5908  000F4E                     l383:
  5909                           
  5910                           ; BSR set to: 0
  5911                           ;CANlib.h: 378: else
  5912                           ;CANlib.h: 379: TXB1DLCbits.TXRTR = 0x00;
  5913  000F4E  010F               	movlb	15	; () banked
  5914  000F50  9D35               	bcf	53,6,b	;volatile
  5915  000F52                     l384:
  5916                           
  5917                           ; BSR set to: 15
  5918                           ;CANlib.h: 381: if (CAN_TX_FRAME_MASK & flags)
  5919  000F52  0100               	movlb	0	; () banked
  5920  000F54  A775               	btfss	CANsendMessage@flags& (0+255),3,b
  5921  000F56  D079               	goto	l385
  5922                           
  5923                           ; BSR set to: 0
  5924                           ;CANlib.h: 382: {
  5925                           ;CANlib.h: 383: tamp = identifier & 0x000000FF;
  5926  000F58  0100               	movlb	0	; () banked
  5927  000F5A  516E               	movf	CANsendMessage@identifier& (0+255),w,b
  5928  000F5C  0100               	movlb	0	; () banked
  5929  000F5E  6F7A               	movwf	CANsendMessage@tamp& (0+255),b
  5930  000F60  6B7B               	clrf	(CANsendMessage@tamp+1)& (0+255),b
  5931  000F62  6B7C               	clrf	(CANsendMessage@tamp+2)& (0+255),b
  5932  000F64  6B7D               	clrf	(CANsendMessage@tamp+3)& (0+255),b
  5933                           
  5934                           ; BSR set to: 0
  5935                           ;CANlib.h: 384: TXB1EIDL = (unsigned char) tamp;
  5936  000F66  C07A  FF34         	movff	CANsendMessage@tamp,3892	;volatile
  5937                           
  5938                           ; BSR set to: 0
  5939                           ;CANlib.h: 386: tamp = identifier & 0x0000FF00;
  5940  000F6A  0E00               	movlw	0
  5941  000F6C  0100               	movlb	0	; () banked
  5942  000F6E  156E               	andwf	CANsendMessage@identifier& (0+255),w,b
  5943  000F70  0100               	movlb	0	; () banked
  5944  000F72  6F7A               	movwf	CANsendMessage@tamp& (0+255),b
  5945  000F74  0EFF               	movlw	255
  5946  000F76  0100               	movlb	0	; () banked
  5947  000F78  156F               	andwf	(CANsendMessage@identifier+1)& (0+255),w,b
  5948  000F7A  0100               	movlb	0	; () banked
  5949  000F7C  6F7B               	movwf	(CANsendMessage@tamp+1)& (0+255),b
  5950  000F7E  0E00               	movlw	0
  5951  000F80  0100               	movlb	0	; () banked
  5952  000F82  1570               	andwf	(CANsendMessage@identifier+2)& (0+255),w,b
  5953  000F84  0100               	movlb	0	; () banked
  5954  000F86  6F7C               	movwf	(CANsendMessage@tamp+2)& (0+255),b
  5955  000F88  0E00               	movlw	0
  5956  000F8A  0100               	movlb	0	; () banked
  5957  000F8C  1571               	andwf	(CANsendMessage@identifier+3)& (0+255),w,b
  5958  000F8E  0100               	movlb	0	; () banked
  5959  000F90  6F7D               	movwf	(CANsendMessage@tamp+3)& (0+255),b
  5960                           
  5961                           ; BSR set to: 0
  5962                           ;CANlib.h: 387: tamp = tamp >> 8;
  5963  000F92  C07A  F076         	movff	CANsendMessage@tamp,??_CANsendMessage
  5964  000F96  C07B  F077         	movff	CANsendMessage@tamp+1,??_CANsendMessage+1
  5965  000F9A  C07C  F078         	movff	CANsendMessage@tamp+2,??_CANsendMessage+2
  5966  000F9E  C07D  F079         	movff	CANsendMessage@tamp+3,??_CANsendMessage+3
  5967  000FA2  C077  F076         	movff	??_CANsendMessage+1,??_CANsendMessage
  5968  000FA6  C078  F077         	movff	??_CANsendMessage+2,??_CANsendMessage+1
  5969  000FAA  C079  F078         	movff	??_CANsendMessage+3,??_CANsendMessage+2
  5970  000FAE  0100               	movlb	0	; () banked
  5971  000FB0  6B79               	clrf	(??_CANsendMessage+3)& (0+255),b
  5972  000FB2  C076  F07A         	movff	??_CANsendMessage,CANsendMessage@tamp
  5973  000FB6  C077  F07B         	movff	??_CANsendMessage+1,CANsendMessage@tamp+1
  5974  000FBA  C078  F07C         	movff	??_CANsendMessage+2,CANsendMessage@tamp+2
  5975  000FBE  C079  F07D         	movff	??_CANsendMessage+3,CANsendMessage@tamp+3
  5976                           
  5977                           ; BSR set to: 0
  5978                           ;CANlib.h: 388: TXB1EIDH = (unsigned char) tamp;
  5979  000FC2  C07A  FF33         	movff	CANsendMessage@tamp,3891	;volatile
  5980                           
  5981                           ; BSR set to: 0
  5982                           ;CANlib.h: 390: TXB1SIDL = 0x00;
  5983  000FC6  0E00               	movlw	0
  5984  000FC8  010F               	movlb	15	; () banked
  5985  000FCA  6F32               	movwf	50,b	;volatile
  5986                           
  5987                           ; BSR set to: 15
  5988                           ;CANlib.h: 391: TXB1SIDLbits.EXIDE = 0x01;
  5989  000FCC  010F               	movlb	15	; () banked
  5990  000FCE  8732               	bsf	50,3,b	;volatile
  5991                           
  5992                           ; BSR set to: 15
  5993                           ;CANlib.h: 393: if (identifier & 0x00010000)
  5994  000FD0  0100               	movlb	0	; () banked
  5995  000FD2  A170               	btfss	(CANsendMessage@identifier+2)& (0+255),0,b
  5996  000FD4  D002               	goto	l386
  5997                           
  5998                           ; BSR set to: 0
  5999                           ;CANlib.h: 394: TXB1SIDLbits.EID16 = 0x01;
  6000  000FD6  010F               	movlb	15	; () banked
  6001  000FD8  8132               	bsf	50,0,b	;volatile
  6002  000FDA                     l386:
  6003                           
  6004                           ;CANlib.h: 395: if (identifier & 0x00020000)
  6005  000FDA  0100               	movlb	0	; () banked
  6006  000FDC  A370               	btfss	(CANsendMessage@identifier+2)& (0+255),1,b
  6007  000FDE  D002               	goto	l387
  6008                           
  6009                           ; BSR set to: 0
  6010                           ;CANlib.h: 396: TXB1SIDLbits.EID17 = 0x01;
  6011  000FE0  010F               	movlb	15	; () banked
  6012  000FE2  8332               	bsf	50,1,b	;volatile
  6013  000FE4                     l387:
  6014                           
  6015                           ;CANlib.h: 397: if (identifier & 0x00040000)
  6016  000FE4  0100               	movlb	0	; () banked
  6017  000FE6  A570               	btfss	(CANsendMessage@identifier+2)& (0+255),2,b
  6018  000FE8  D002               	goto	l388
  6019                           
  6020                           ; BSR set to: 0
  6021                           ;CANlib.h: 398: TXB1SIDLbits.SID0 = 0x01;
  6022  000FEA  010F               	movlb	15	; () banked
  6023  000FEC  8B32               	bsf	50,5,b	;volatile
  6024  000FEE                     l388:
  6025                           
  6026                           ;CANlib.h: 399: if (identifier & 0x00080000)
  6027  000FEE  0100               	movlb	0	; () banked
  6028  000FF0  A770               	btfss	(CANsendMessage@identifier+2)& (0+255),3,b
  6029  000FF2  D002               	goto	l389
  6030                           
  6031                           ; BSR set to: 0
  6032                           ;CANlib.h: 400: TXB1SIDLbits.SID1 = 0x01;
  6033  000FF4  010F               	movlb	15	; () banked
  6034  000FF6  8D32               	bsf	50,6,b	;volatile
  6035  000FF8                     l389:
  6036                           
  6037                           ;CANlib.h: 401: if (identifier & 0x00100000)
  6038  000FF8  0100               	movlb	0	; () banked
  6039  000FFA  A970               	btfss	(CANsendMessage@identifier+2)& (0+255),4,b
  6040  000FFC  D002               	goto	l4530
  6041                           
  6042                           ; BSR set to: 0
  6043                           ;CANlib.h: 402: TXB1SIDLbits.SID2 = 0x01;
  6044  000FFE  010F               	movlb	15	; () banked
  6045  001000  8F32               	bsf	50,7,b	;volatile
  6046  001002                     l4530:
  6047                           
  6048                           ;CANlib.h: 404: tamp = (identifier >> 21);
  6049  001002  C06E  F076         	movff	CANsendMessage@identifier,??_CANsendMessage
  6050  001006  C06F  F077         	movff	CANsendMessage@identifier+1,??_CANsendMessage+1
  6051  00100A  C070  F078         	movff	CANsendMessage@identifier+2,??_CANsendMessage+2
  6052  00100E  C071  F079         	movff	CANsendMessage@identifier+3,??_CANsendMessage+3
  6053  001012  0E16               	movlw	22
  6054  001014  D006               	goto	u5890
  6055  001016                     u5895:
  6056  001016  0100               	movlb	0	; () banked
  6057  001018  90D8               	bcf	status,0,c
  6058  00101A  3379               	rrcf	(??_CANsendMessage+3)& (0+255),f,b
  6059  00101C  3378               	rrcf	(??_CANsendMessage+2)& (0+255),f,b
  6060  00101E  3377               	rrcf	(??_CANsendMessage+1)& (0+255),f,b
  6061  001020  3376               	rrcf	??_CANsendMessage& (0+255),f,b
  6062  001022                     u5890:
  6063  001022  2EE8               	decfsz	wreg,f,c
  6064  001024  D7F8               	goto	u5895
  6065  001026  C076  F07A         	movff	??_CANsendMessage,CANsendMessage@tamp
  6066  00102A  C077  F07B         	movff	??_CANsendMessage+1,CANsendMessage@tamp+1
  6067  00102E  C078  F07C         	movff	??_CANsendMessage+2,CANsendMessage@tamp+2
  6068  001032  C079  F07D         	movff	??_CANsendMessage+3,CANsendMessage@tamp+3
  6069                           
  6070                           ; BSR set to: 0
  6071                           ;CANlib.h: 405: tamp = tamp & 0x000000FF;
  6072  001036  0100               	movlb	0	; () banked
  6073  001038  517A               	movf	CANsendMessage@tamp& (0+255),w,b
  6074  00103A  0100               	movlb	0	; () banked
  6075  00103C  6F7A               	movwf	CANsendMessage@tamp& (0+255),b
  6076  00103E  6B7B               	clrf	(CANsendMessage@tamp+1)& (0+255),b
  6077  001040  6B7C               	clrf	(CANsendMessage@tamp+2)& (0+255),b
  6078  001042  6B7D               	clrf	(CANsendMessage@tamp+3)& (0+255),b
  6079                           
  6080                           ; BSR set to: 0
  6081                           ;CANlib.h: 406: TXB1SIDH = (unsigned char) tamp;
  6082  001044  C07A  FF31         	movff	CANsendMessage@tamp,3889	;volatile
  6083                           
  6084                           ;CANlib.h: 407: }
  6085  001048  D059               	goto	l4550
  6086  00104A                     l385:
  6087                           
  6088                           ; BSR set to: 0
  6089                           ;CANlib.h: 409: else
  6090                           ;CANlib.h: 411: {
  6091                           ;CANlib.h: 412: TXB1SIDLbits.EXIDE = 0x00;
  6092  00104A  010F               	movlb	15	; () banked
  6093  00104C  9732               	bcf	50,3,b	;volatile
  6094                           
  6095                           ; BSR set to: 15
  6096                           ;CANlib.h: 414: tamp = (identifier >> 3);
  6097  00104E  C06E  F076         	movff	CANsendMessage@identifier,??_CANsendMessage
  6098  001052  C06F  F077         	movff	CANsendMessage@identifier+1,??_CANsendMessage+1
  6099  001056  C070  F078         	movff	CANsendMessage@identifier+2,??_CANsendMessage+2
  6100  00105A  C071  F079         	movff	CANsendMessage@identifier+3,??_CANsendMessage+3
  6101  00105E  0E04               	movlw	4
  6102  001060  D006               	goto	u5900
  6103  001062                     u5905:
  6104  001062  0100               	movlb	0	; () banked
  6105  001064  90D8               	bcf	status,0,c
  6106  001066  3379               	rrcf	(??_CANsendMessage+3)& (0+255),f,b
  6107  001068  3378               	rrcf	(??_CANsendMessage+2)& (0+255),f,b
  6108  00106A  3377               	rrcf	(??_CANsendMessage+1)& (0+255),f,b
  6109  00106C  3376               	rrcf	??_CANsendMessage& (0+255),f,b
  6110  00106E                     u5900:
  6111  00106E  2EE8               	decfsz	wreg,f,c
  6112  001070  D7F8               	goto	u5905
  6113  001072  C076  F07A         	movff	??_CANsendMessage,CANsendMessage@tamp
  6114  001076  C077  F07B         	movff	??_CANsendMessage+1,CANsendMessage@tamp+1
  6115  00107A  C078  F07C         	movff	??_CANsendMessage+2,CANsendMessage@tamp+2
  6116  00107E  C079  F07D         	movff	??_CANsendMessage+3,CANsendMessage@tamp+3
  6117                           
  6118                           ; BSR set to: 0
  6119                           ;CANlib.h: 415: tamp = tamp & 0x000000FF;
  6120  001082  0100               	movlb	0	; () banked
  6121  001084  517A               	movf	CANsendMessage@tamp& (0+255),w,b
  6122  001086  0100               	movlb	0	; () banked
  6123  001088  6F7A               	movwf	CANsendMessage@tamp& (0+255),b
  6124  00108A  6B7B               	clrf	(CANsendMessage@tamp+1)& (0+255),b
  6125  00108C  6B7C               	clrf	(CANsendMessage@tamp+2)& (0+255),b
  6126  00108E  6B7D               	clrf	(CANsendMessage@tamp+3)& (0+255),b
  6127                           
  6128                           ; BSR set to: 0
  6129                           ;CANlib.h: 416: TXB1SIDH = (unsigned char) tamp;
  6130  001090  C07A  FF31         	movff	CANsendMessage@tamp,3889	;volatile
  6131                           
  6132                           ; BSR set to: 0
  6133                           ;CANlib.h: 418: tamp = identifier & 0x00000007;
  6134  001094  0E07               	movlw	7
  6135  001096  0100               	movlb	0	; () banked
  6136  001098  156E               	andwf	CANsendMessage@identifier& (0+255),w,b
  6137  00109A  0100               	movlb	0	; () banked
  6138  00109C  6F7A               	movwf	CANsendMessage@tamp& (0+255),b
  6139  00109E  0E00               	movlw	0
  6140  0010A0  0100               	movlb	0	; () banked
  6141  0010A2  156F               	andwf	(CANsendMessage@identifier+1)& (0+255),w,b
  6142  0010A4  0100               	movlb	0	; () banked
  6143  0010A6  6F7B               	movwf	(CANsendMessage@tamp+1)& (0+255),b
  6144  0010A8  0E00               	movlw	0
  6145  0010AA  0100               	movlb	0	; () banked
  6146  0010AC  1570               	andwf	(CANsendMessage@identifier+2)& (0+255),w,b
  6147  0010AE  0100               	movlb	0	; () banked
  6148  0010B0  6F7C               	movwf	(CANsendMessage@tamp+2)& (0+255),b
  6149  0010B2  0E00               	movlw	0
  6150  0010B4  0100               	movlb	0	; () banked
  6151  0010B6  1571               	andwf	(CANsendMessage@identifier+3)& (0+255),w,b
  6152  0010B8  0100               	movlb	0	; () banked
  6153  0010BA  6F7D               	movwf	(CANsendMessage@tamp+3)& (0+255),b
  6154                           
  6155                           ; BSR set to: 0
  6156                           ;CANlib.h: 419: tamp = tamp << 5;
  6157  0010BC  C07A  F076         	movff	CANsendMessage@tamp,??_CANsendMessage
  6158  0010C0  C07B  F077         	movff	CANsendMessage@tamp+1,??_CANsendMessage+1
  6159  0010C4  C07C  F078         	movff	CANsendMessage@tamp+2,??_CANsendMessage+2
  6160  0010C8  C07D  F079         	movff	CANsendMessage@tamp+3,??_CANsendMessage+3
  6161  0010CC  0E05               	movlw	5
  6162  0010CE                     u5915:
  6163  0010CE  90D8               	bcf	status,0,c
  6164  0010D0  0100               	movlb	0	; () banked
  6165  0010D2  3776               	rlcf	??_CANsendMessage& (0+255),f,b
  6166  0010D4  3777               	rlcf	(??_CANsendMessage+1)& (0+255),f,b
  6167  0010D6  3778               	rlcf	(??_CANsendMessage+2)& (0+255),f,b
  6168  0010D8  3779               	rlcf	(??_CANsendMessage+3)& (0+255),f,b
  6169  0010DA  2EE8               	decfsz	wreg,f,c
  6170  0010DC  D7F8               	goto	u5915
  6171  0010DE  C076  F07A         	movff	??_CANsendMessage,CANsendMessage@tamp
  6172  0010E2  C077  F07B         	movff	??_CANsendMessage+1,CANsendMessage@tamp+1
  6173  0010E6  C078  F07C         	movff	??_CANsendMessage+2,CANsendMessage@tamp+2
  6174  0010EA  C079  F07D         	movff	??_CANsendMessage+3,CANsendMessage@tamp+3
  6175                           
  6176                           ; BSR set to: 0
  6177                           ;CANlib.h: 420: TXB1SIDL = TXB1SIDL & 0b00011111;
  6178  0010EE  010F               	movlb	15	; () banked
  6179  0010F0  5132               	movf	50,w,b	;volatile
  6180  0010F2  0B1F               	andlw	31
  6181  0010F4  010F               	movlb	15	; () banked
  6182  0010F6  6F32               	movwf	50,b	;volatile
  6183                           
  6184                           ; BSR set to: 15
  6185                           ;CANlib.h: 421: TXB1SIDL = (unsigned char) tamp;
  6186  0010F8  C07A  FF32         	movff	CANsendMessage@tamp,3890	;volatile
  6187  0010FC                     l4550:
  6188                           
  6189                           ;CANlib.h: 422: }
  6190                           ;CANlib.h: 424: if (0b00000001 & flags)
  6191  0010FC  0100               	movlb	0	; () banked
  6192  0010FE  A175               	btfss	CANsendMessage@flags& (0+255),0,b
  6193  001100  D003               	goto	l392
  6194                           
  6195                           ; BSR set to: 0
  6196                           ;CANlib.h: 425: TXB1CONbits.TXPRI0 = 0x01;
  6197  001102  010F               	movlb	15	; () banked
  6198  001104  8130               	bsf	48,0,b	;volatile
  6199  001106  D002               	goto	l393
  6200  001108                     l392:
  6201                           
  6202                           ; BSR set to: 0
  6203                           ;CANlib.h: 426: else
  6204                           ;CANlib.h: 427: TXB1CONbits.TXPRI0 = 0x00;
  6205  001108  010F               	movlb	15	; () banked
  6206  00110A  9130               	bcf	48,0,b	;volatile
  6207  00110C                     l393:
  6208                           
  6209                           ; BSR set to: 15
  6210                           ;CANlib.h: 428: if (0b00000010 & flags)
  6211  00110C  0100               	movlb	0	; () banked
  6212  00110E  A375               	btfss	CANsendMessage@flags& (0+255),1,b
  6213  001110  D003               	goto	l394
  6214                           
  6215                           ; BSR set to: 0
  6216                           ;CANlib.h: 429: TXB1CONbits.TXPRI1 = 0x01;
  6217  001112  010F               	movlb	15	; () banked
  6218  001114  8330               	bsf	48,1,b	;volatile
  6219  001116  D002               	goto	l4556
  6220  001118                     l394:
  6221                           
  6222                           ; BSR set to: 0
  6223                           ;CANlib.h: 430: else
  6224                           ;CANlib.h: 431: TXB1CONbits.TXPRI1 = 0x00;
  6225  001118  010F               	movlb	15	; () banked
  6226  00111A  9330               	bcf	48,1,b	;volatile
  6227  00111C                     l4556:
  6228                           
  6229                           ; BSR set to: 15
  6230                           ;CANlib.h: 433: TXB1D0 = data[0];
  6231  00111C  C072  FFD9         	movff	CANsendMessage@data,fsr2l
  6232  001120  C073  FFDA         	movff	CANsendMessage@data+1,fsr2h
  6233  001124  50DF               	movf	indf2,w,c
  6234  001126  010F               	movlb	15	; () banked
  6235  001128  6F36               	movwf	54,b	;volatile
  6236                           
  6237                           ; BSR set to: 15
  6238                           ;CANlib.h: 434: TXB1D1 = data[1];
  6239  00112A  0100               	movlb	0	; () banked
  6240  00112C  EE20 F001          	lfsr	2,1
  6241  001130  5172               	movf	CANsendMessage@data& (0+255),w,b
  6242  001132  26D9               	addwf	fsr2l,f,c
  6243  001134  5173               	movf	(CANsendMessage@data+1)& (0+255),w,b
  6244  001136  22DA               	addwfc	fsr2h,f,c
  6245  001138  50DF               	movf	indf2,w,c
  6246  00113A  010F               	movlb	15	; () banked
  6247  00113C  6F37               	movwf	55,b	;volatile
  6248                           
  6249                           ; BSR set to: 15
  6250                           ;CANlib.h: 435: TXB1D2 = data[2];
  6251  00113E  0100               	movlb	0	; () banked
  6252  001140  EE20 F002          	lfsr	2,2
  6253  001144  5172               	movf	CANsendMessage@data& (0+255),w,b
  6254  001146  26D9               	addwf	fsr2l,f,c
  6255  001148  5173               	movf	(CANsendMessage@data+1)& (0+255),w,b
  6256  00114A  22DA               	addwfc	fsr2h,f,c
  6257  00114C  50DF               	movf	indf2,w,c
  6258  00114E  010F               	movlb	15	; () banked
  6259  001150  6F38               	movwf	56,b	;volatile
  6260                           
  6261                           ; BSR set to: 15
  6262                           ;CANlib.h: 436: TXB1D3 = data[3];
  6263  001152  0100               	movlb	0	; () banked
  6264  001154  EE20 F003          	lfsr	2,3
  6265  001158  5172               	movf	CANsendMessage@data& (0+255),w,b
  6266  00115A  26D9               	addwf	fsr2l,f,c
  6267  00115C  5173               	movf	(CANsendMessage@data+1)& (0+255),w,b
  6268  00115E  22DA               	addwfc	fsr2h,f,c
  6269  001160  50DF               	movf	indf2,w,c
  6270  001162  010F               	movlb	15	; () banked
  6271  001164  6F39               	movwf	57,b	;volatile
  6272                           
  6273                           ; BSR set to: 15
  6274                           ;CANlib.h: 437: TXB1D4 = data[4];
  6275  001166  0100               	movlb	0	; () banked
  6276  001168  EE20 F004          	lfsr	2,4
  6277  00116C  5172               	movf	CANsendMessage@data& (0+255),w,b
  6278  00116E  26D9               	addwf	fsr2l,f,c
  6279  001170  5173               	movf	(CANsendMessage@data+1)& (0+255),w,b
  6280  001172  22DA               	addwfc	fsr2h,f,c
  6281  001174  50DF               	movf	indf2,w,c
  6282  001176  010F               	movlb	15	; () banked
  6283  001178  6F3A               	movwf	58,b	;volatile
  6284                           
  6285                           ; BSR set to: 15
  6286                           ;CANlib.h: 438: TXB1D5 = data[5];
  6287  00117A  0100               	movlb	0	; () banked
  6288  00117C  EE20 F005          	lfsr	2,5
  6289  001180  5172               	movf	CANsendMessage@data& (0+255),w,b
  6290  001182  26D9               	addwf	fsr2l,f,c
  6291  001184  5173               	movf	(CANsendMessage@data+1)& (0+255),w,b
  6292  001186  22DA               	addwfc	fsr2h,f,c
  6293  001188  50DF               	movf	indf2,w,c
  6294  00118A  010F               	movlb	15	; () banked
  6295  00118C  6F3B               	movwf	59,b	;volatile
  6296                           
  6297                           ; BSR set to: 15
  6298                           ;CANlib.h: 439: TXB1D6 = data[6];
  6299  00118E  0100               	movlb	0	; () banked
  6300  001190  EE20 F006          	lfsr	2,6
  6301  001194  5172               	movf	CANsendMessage@data& (0+255),w,b
  6302  001196  26D9               	addwf	fsr2l,f,c
  6303  001198  5173               	movf	(CANsendMessage@data+1)& (0+255),w,b
  6304  00119A  22DA               	addwfc	fsr2h,f,c
  6305  00119C  50DF               	movf	indf2,w,c
  6306  00119E  010F               	movlb	15	; () banked
  6307  0011A0  6F3C               	movwf	60,b	;volatile
  6308                           
  6309                           ; BSR set to: 15
  6310                           ;CANlib.h: 440: TXB1D7 = data[7];
  6311  0011A2  0100               	movlb	0	; () banked
  6312  0011A4  EE20 F007          	lfsr	2,7
  6313  0011A8  5172               	movf	CANsendMessage@data& (0+255),w,b
  6314  0011AA  26D9               	addwf	fsr2l,f,c
  6315  0011AC  5173               	movf	(CANsendMessage@data+1)& (0+255),w,b
  6316  0011AE  22DA               	addwfc	fsr2h,f,c
  6317  0011B0  50DF               	movf	indf2,w,c
  6318  0011B2  010F               	movlb	15	; () banked
  6319  0011B4  6F3D               	movwf	61,b	;volatile
  6320                           
  6321                           ; BSR set to: 15
  6322                           ;CANlib.h: 442: TXB1CONbits.TXREQ = 0x01;
  6323  0011B6  010F               	movlb	15	; () banked
  6324  0011B8  8730               	bsf	48,3,b	;volatile
  6325                           
  6326                           ; BSR set to: 15
  6327                           ;CANlib.h: 444: return;
  6328  0011BA  0012               	return	
  6329  0011BC                     l382:
  6330                           
  6331                           ; BSR set to: 15
  6332                           ;CANlib.h: 445: }
  6333                           ;CANlib.h: 449: if (TXB2CONbits.TXREQ == 0)
  6334  0011BC  010F               	movlb	15	; () banked
  6335  0011BE  B720               	btfsc	32,3,b	;volatile
  6336  0011C0  0012               	return	
  6337                           
  6338                           ; BSR set to: 15
  6339                           ;CANlib.h: 450: { TXB2DLC = dataLength;
  6340  0011C2  C074  FF25         	movff	CANsendMessage@dataLength,3877	;volatile
  6341                           
  6342                           ;CANlib.h: 452: if (0b01000000 & flags)
  6343  0011C6  0100               	movlb	0	; () banked
  6344  0011C8  AD75               	btfss	CANsendMessage@flags& (0+255),6,b
  6345  0011CA  D003               	goto	l397
  6346                           
  6347                           ; BSR set to: 0
  6348                           ;CANlib.h: 453: TXB2DLCbits.TXRTR = 0x01;
  6349  0011CC  010F               	movlb	15	; () banked
  6350  0011CE  8D25               	bsf	37,6,b	;volatile
  6351  0011D0  D002               	goto	l398
  6352  0011D2                     l397:
  6353                           
  6354                           ; BSR set to: 0
  6355                           ;CANlib.h: 454: else
  6356                           ;CANlib.h: 455: TXB2DLCbits.TXRTR = 0x00;
  6357  0011D2  010F               	movlb	15	; () banked
  6358  0011D4  9D25               	bcf	37,6,b	;volatile
  6359  0011D6                     l398:
  6360                           
  6361                           ; BSR set to: 15
  6362                           ;CANlib.h: 457: if (CAN_TX_FRAME_MASK & flags)
  6363  0011D6  0100               	movlb	0	; () banked
  6364  0011D8  A775               	btfss	CANsendMessage@flags& (0+255),3,b
  6365  0011DA  D079               	goto	l399
  6366                           
  6367                           ; BSR set to: 0
  6368                           ;CANlib.h: 458: {
  6369                           ;CANlib.h: 459: tamp = identifier & 0x000000FF;
  6370  0011DC  0100               	movlb	0	; () banked
  6371  0011DE  516E               	movf	CANsendMessage@identifier& (0+255),w,b
  6372  0011E0  0100               	movlb	0	; () banked
  6373  0011E2  6F7A               	movwf	CANsendMessage@tamp& (0+255),b
  6374  0011E4  6B7B               	clrf	(CANsendMessage@tamp+1)& (0+255),b
  6375  0011E6  6B7C               	clrf	(CANsendMessage@tamp+2)& (0+255),b
  6376  0011E8  6B7D               	clrf	(CANsendMessage@tamp+3)& (0+255),b
  6377                           
  6378                           ; BSR set to: 0
  6379                           ;CANlib.h: 460: TXB2EIDL = (unsigned char) tamp;
  6380  0011EA  C07A  FF24         	movff	CANsendMessage@tamp,3876	;volatile
  6381                           
  6382                           ; BSR set to: 0
  6383                           ;CANlib.h: 462: tamp = identifier & 0x0000FF00;
  6384  0011EE  0E00               	movlw	0
  6385  0011F0  0100               	movlb	0	; () banked
  6386  0011F2  156E               	andwf	CANsendMessage@identifier& (0+255),w,b
  6387  0011F4  0100               	movlb	0	; () banked
  6388  0011F6  6F7A               	movwf	CANsendMessage@tamp& (0+255),b
  6389  0011F8  0EFF               	movlw	255
  6390  0011FA  0100               	movlb	0	; () banked
  6391  0011FC  156F               	andwf	(CANsendMessage@identifier+1)& (0+255),w,b
  6392  0011FE  0100               	movlb	0	; () banked
  6393  001200  6F7B               	movwf	(CANsendMessage@tamp+1)& (0+255),b
  6394  001202  0E00               	movlw	0
  6395  001204  0100               	movlb	0	; () banked
  6396  001206  1570               	andwf	(CANsendMessage@identifier+2)& (0+255),w,b
  6397  001208  0100               	movlb	0	; () banked
  6398  00120A  6F7C               	movwf	(CANsendMessage@tamp+2)& (0+255),b
  6399  00120C  0E00               	movlw	0
  6400  00120E  0100               	movlb	0	; () banked
  6401  001210  1571               	andwf	(CANsendMessage@identifier+3)& (0+255),w,b
  6402  001212  0100               	movlb	0	; () banked
  6403  001214  6F7D               	movwf	(CANsendMessage@tamp+3)& (0+255),b
  6404                           
  6405                           ; BSR set to: 0
  6406                           ;CANlib.h: 463: tamp = tamp >> 8;
  6407  001216  C07A  F076         	movff	CANsendMessage@tamp,??_CANsendMessage
  6408  00121A  C07B  F077         	movff	CANsendMessage@tamp+1,??_CANsendMessage+1
  6409  00121E  C07C  F078         	movff	CANsendMessage@tamp+2,??_CANsendMessage+2
  6410  001222  C07D  F079         	movff	CANsendMessage@tamp+3,??_CANsendMessage+3
  6411  001226  C077  F076         	movff	??_CANsendMessage+1,??_CANsendMessage
  6412  00122A  C078  F077         	movff	??_CANsendMessage+2,??_CANsendMessage+1
  6413  00122E  C079  F078         	movff	??_CANsendMessage+3,??_CANsendMessage+2
  6414  001232  0100               	movlb	0	; () banked
  6415  001234  6B79               	clrf	(??_CANsendMessage+3)& (0+255),b
  6416  001236  C076  F07A         	movff	??_CANsendMessage,CANsendMessage@tamp
  6417  00123A  C077  F07B         	movff	??_CANsendMessage+1,CANsendMessage@tamp+1
  6418  00123E  C078  F07C         	movff	??_CANsendMessage+2,CANsendMessage@tamp+2
  6419  001242  C079  F07D         	movff	??_CANsendMessage+3,CANsendMessage@tamp+3
  6420                           
  6421                           ; BSR set to: 0
  6422                           ;CANlib.h: 464: TXB2EIDH = (unsigned char) tamp;
  6423  001246  C07A  FF23         	movff	CANsendMessage@tamp,3875	;volatile
  6424                           
  6425                           ; BSR set to: 0
  6426                           ;CANlib.h: 466: TXB2SIDL = 0x00;
  6427  00124A  0E00               	movlw	0
  6428  00124C  010F               	movlb	15	; () banked
  6429  00124E  6F22               	movwf	34,b	;volatile
  6430                           
  6431                           ; BSR set to: 15
  6432                           ;CANlib.h: 467: TXB2SIDLbits.EXIDE = 0x01;
  6433  001250  010F               	movlb	15	; () banked
  6434  001252  8722               	bsf	34,3,b	;volatile
  6435                           
  6436                           ; BSR set to: 15
  6437                           ;CANlib.h: 469: if (identifier & 0x00010000)
  6438  001254  0100               	movlb	0	; () banked
  6439  001256  A170               	btfss	(CANsendMessage@identifier+2)& (0+255),0,b
  6440  001258  D002               	goto	l400
  6441                           
  6442                           ; BSR set to: 0
  6443                           ;CANlib.h: 470: TXB2SIDLbits.EID16 = 0x01;
  6444  00125A  010F               	movlb	15	; () banked
  6445  00125C  8122               	bsf	34,0,b	;volatile
  6446  00125E                     l400:
  6447                           
  6448                           ;CANlib.h: 471: if (identifier & 0x00020000)
  6449  00125E  0100               	movlb	0	; () banked
  6450  001260  A370               	btfss	(CANsendMessage@identifier+2)& (0+255),1,b
  6451  001262  D002               	goto	l401
  6452                           
  6453                           ; BSR set to: 0
  6454                           ;CANlib.h: 472: TXB2SIDLbits.EID17 = 0x01;
  6455  001264  010F               	movlb	15	; () banked
  6456  001266  8322               	bsf	34,1,b	;volatile
  6457  001268                     l401:
  6458                           
  6459                           ;CANlib.h: 473: if (identifier & 0x00040000)
  6460  001268  0100               	movlb	0	; () banked
  6461  00126A  A570               	btfss	(CANsendMessage@identifier+2)& (0+255),2,b
  6462  00126C  D002               	goto	l402
  6463                           
  6464                           ; BSR set to: 0
  6465                           ;CANlib.h: 474: TXB2SIDLbits.SID0 = 0x01;
  6466  00126E  010F               	movlb	15	; () banked
  6467  001270  8B22               	bsf	34,5,b	;volatile
  6468  001272                     l402:
  6469                           
  6470                           ;CANlib.h: 475: if (identifier & 0x00080000)
  6471  001272  0100               	movlb	0	; () banked
  6472  001274  A770               	btfss	(CANsendMessage@identifier+2)& (0+255),3,b
  6473  001276  D002               	goto	l403
  6474                           
  6475                           ; BSR set to: 0
  6476                           ;CANlib.h: 476: TXB2SIDLbits.SID1 = 0x01;
  6477  001278  010F               	movlb	15	; () banked
  6478  00127A  8D22               	bsf	34,6,b	;volatile
  6479  00127C                     l403:
  6480                           
  6481                           ;CANlib.h: 477: if (identifier & 0x00100000)
  6482  00127C  0100               	movlb	0	; () banked
  6483  00127E  A970               	btfss	(CANsendMessage@identifier+2)& (0+255),4,b
  6484  001280  D002               	goto	l4606
  6485                           
  6486                           ; BSR set to: 0
  6487                           ;CANlib.h: 478: TXB2SIDLbits.SID2 = 0x01;
  6488  001282  010F               	movlb	15	; () banked
  6489  001284  8F22               	bsf	34,7,b	;volatile
  6490  001286                     l4606:
  6491                           
  6492                           ;CANlib.h: 480: tamp = (identifier >> 21);
  6493  001286  C06E  F076         	movff	CANsendMessage@identifier,??_CANsendMessage
  6494  00128A  C06F  F077         	movff	CANsendMessage@identifier+1,??_CANsendMessage+1
  6495  00128E  C070  F078         	movff	CANsendMessage@identifier+2,??_CANsendMessage+2
  6496  001292  C071  F079         	movff	CANsendMessage@identifier+3,??_CANsendMessage+3
  6497  001296  0E16               	movlw	22
  6498  001298  D006               	goto	u6020
  6499  00129A                     u6025:
  6500  00129A  0100               	movlb	0	; () banked
  6501  00129C  90D8               	bcf	status,0,c
  6502  00129E  3379               	rrcf	(??_CANsendMessage+3)& (0+255),f,b
  6503  0012A0  3378               	rrcf	(??_CANsendMessage+2)& (0+255),f,b
  6504  0012A2  3377               	rrcf	(??_CANsendMessage+1)& (0+255),f,b
  6505  0012A4  3376               	rrcf	??_CANsendMessage& (0+255),f,b
  6506  0012A6                     u6020:
  6507  0012A6  2EE8               	decfsz	wreg,f,c
  6508  0012A8  D7F8               	goto	u6025
  6509  0012AA  C076  F07A         	movff	??_CANsendMessage,CANsendMessage@tamp
  6510  0012AE  C077  F07B         	movff	??_CANsendMessage+1,CANsendMessage@tamp+1
  6511  0012B2  C078  F07C         	movff	??_CANsendMessage+2,CANsendMessage@tamp+2
  6512  0012B6  C079  F07D         	movff	??_CANsendMessage+3,CANsendMessage@tamp+3
  6513                           
  6514                           ; BSR set to: 0
  6515                           ;CANlib.h: 481: tamp = tamp & 0x000000FF;
  6516  0012BA  0100               	movlb	0	; () banked
  6517  0012BC  517A               	movf	CANsendMessage@tamp& (0+255),w,b
  6518  0012BE  0100               	movlb	0	; () banked
  6519  0012C0  6F7A               	movwf	CANsendMessage@tamp& (0+255),b
  6520  0012C2  6B7B               	clrf	(CANsendMessage@tamp+1)& (0+255),b
  6521  0012C4  6B7C               	clrf	(CANsendMessage@tamp+2)& (0+255),b
  6522  0012C6  6B7D               	clrf	(CANsendMessage@tamp+3)& (0+255),b
  6523                           
  6524                           ; BSR set to: 0
  6525                           ;CANlib.h: 482: TXB2SIDH = (unsigned char) tamp;
  6526  0012C8  C07A  FF21         	movff	CANsendMessage@tamp,3873	;volatile
  6527                           
  6528                           ;CANlib.h: 483: }
  6529  0012CC  D059               	goto	l4626
  6530  0012CE                     l399:
  6531                           
  6532                           ; BSR set to: 0
  6533                           ;CANlib.h: 485: else
  6534                           ;CANlib.h: 487: {
  6535                           ;CANlib.h: 488: TXB2SIDLbits.EXIDE = 0x00;
  6536  0012CE  010F               	movlb	15	; () banked
  6537  0012D0  9722               	bcf	34,3,b	;volatile
  6538                           
  6539                           ; BSR set to: 15
  6540                           ;CANlib.h: 490: tamp = (identifier >> 3);
  6541  0012D2  C06E  F076         	movff	CANsendMessage@identifier,??_CANsendMessage
  6542  0012D6  C06F  F077         	movff	CANsendMessage@identifier+1,??_CANsendMessage+1
  6543  0012DA  C070  F078         	movff	CANsendMessage@identifier+2,??_CANsendMessage+2
  6544  0012DE  C071  F079         	movff	CANsendMessage@identifier+3,??_CANsendMessage+3
  6545  0012E2  0E04               	movlw	4
  6546  0012E4  D006               	goto	u6030
  6547  0012E6                     u6035:
  6548  0012E6  0100               	movlb	0	; () banked
  6549  0012E8  90D8               	bcf	status,0,c
  6550  0012EA  3379               	rrcf	(??_CANsendMessage+3)& (0+255),f,b
  6551  0012EC  3378               	rrcf	(??_CANsendMessage+2)& (0+255),f,b
  6552  0012EE  3377               	rrcf	(??_CANsendMessage+1)& (0+255),f,b
  6553  0012F0  3376               	rrcf	??_CANsendMessage& (0+255),f,b
  6554  0012F2                     u6030:
  6555  0012F2  2EE8               	decfsz	wreg,f,c
  6556  0012F4  D7F8               	goto	u6035
  6557  0012F6  C076  F07A         	movff	??_CANsendMessage,CANsendMessage@tamp
  6558  0012FA  C077  F07B         	movff	??_CANsendMessage+1,CANsendMessage@tamp+1
  6559  0012FE  C078  F07C         	movff	??_CANsendMessage+2,CANsendMessage@tamp+2
  6560  001302  C079  F07D         	movff	??_CANsendMessage+3,CANsendMessage@tamp+3
  6561                           
  6562                           ; BSR set to: 0
  6563                           ;CANlib.h: 491: tamp = tamp & 0x000000FF;
  6564  001306  0100               	movlb	0	; () banked
  6565  001308  517A               	movf	CANsendMessage@tamp& (0+255),w,b
  6566  00130A  0100               	movlb	0	; () banked
  6567  00130C  6F7A               	movwf	CANsendMessage@tamp& (0+255),b
  6568  00130E  6B7B               	clrf	(CANsendMessage@tamp+1)& (0+255),b
  6569  001310  6B7C               	clrf	(CANsendMessage@tamp+2)& (0+255),b
  6570  001312  6B7D               	clrf	(CANsendMessage@tamp+3)& (0+255),b
  6571                           
  6572                           ; BSR set to: 0
  6573                           ;CANlib.h: 492: TXB2SIDH = (unsigned char) tamp;
  6574  001314  C07A  FF21         	movff	CANsendMessage@tamp,3873	;volatile
  6575                           
  6576                           ; BSR set to: 0
  6577                           ;CANlib.h: 494: tamp = identifier & 0x00000007;
  6578  001318  0E07               	movlw	7
  6579  00131A  0100               	movlb	0	; () banked
  6580  00131C  156E               	andwf	CANsendMessage@identifier& (0+255),w,b
  6581  00131E  0100               	movlb	0	; () banked
  6582  001320  6F7A               	movwf	CANsendMessage@tamp& (0+255),b
  6583  001322  0E00               	movlw	0
  6584  001324  0100               	movlb	0	; () banked
  6585  001326  156F               	andwf	(CANsendMessage@identifier+1)& (0+255),w,b
  6586  001328  0100               	movlb	0	; () banked
  6587  00132A  6F7B               	movwf	(CANsendMessage@tamp+1)& (0+255),b
  6588  00132C  0E00               	movlw	0
  6589  00132E  0100               	movlb	0	; () banked
  6590  001330  1570               	andwf	(CANsendMessage@identifier+2)& (0+255),w,b
  6591  001332  0100               	movlb	0	; () banked
  6592  001334  6F7C               	movwf	(CANsendMessage@tamp+2)& (0+255),b
  6593  001336  0E00               	movlw	0
  6594  001338  0100               	movlb	0	; () banked
  6595  00133A  1571               	andwf	(CANsendMessage@identifier+3)& (0+255),w,b
  6596  00133C  0100               	movlb	0	; () banked
  6597  00133E  6F7D               	movwf	(CANsendMessage@tamp+3)& (0+255),b
  6598                           
  6599                           ; BSR set to: 0
  6600                           ;CANlib.h: 495: tamp = tamp << 5;
  6601  001340  C07A  F076         	movff	CANsendMessage@tamp,??_CANsendMessage
  6602  001344  C07B  F077         	movff	CANsendMessage@tamp+1,??_CANsendMessage+1
  6603  001348  C07C  F078         	movff	CANsendMessage@tamp+2,??_CANsendMessage+2
  6604  00134C  C07D  F079         	movff	CANsendMessage@tamp+3,??_CANsendMessage+3
  6605  001350  0E05               	movlw	5
  6606  001352                     u6045:
  6607  001352  90D8               	bcf	status,0,c
  6608  001354  0100               	movlb	0	; () banked
  6609  001356  3776               	rlcf	??_CANsendMessage& (0+255),f,b
  6610  001358  3777               	rlcf	(??_CANsendMessage+1)& (0+255),f,b
  6611  00135A  3778               	rlcf	(??_CANsendMessage+2)& (0+255),f,b
  6612  00135C  3779               	rlcf	(??_CANsendMessage+3)& (0+255),f,b
  6613  00135E  2EE8               	decfsz	wreg,f,c
  6614  001360  D7F8               	goto	u6045
  6615  001362  C076  F07A         	movff	??_CANsendMessage,CANsendMessage@tamp
  6616  001366  C077  F07B         	movff	??_CANsendMessage+1,CANsendMessage@tamp+1
  6617  00136A  C078  F07C         	movff	??_CANsendMessage+2,CANsendMessage@tamp+2
  6618  00136E  C079  F07D         	movff	??_CANsendMessage+3,CANsendMessage@tamp+3
  6619                           
  6620                           ; BSR set to: 0
  6621                           ;CANlib.h: 496: TXB2SIDL = TXB2SIDL & 0b00011111;
  6622  001372  010F               	movlb	15	; () banked
  6623  001374  5122               	movf	34,w,b	;volatile
  6624  001376  0B1F               	andlw	31
  6625  001378  010F               	movlb	15	; () banked
  6626  00137A  6F22               	movwf	34,b	;volatile
  6627                           
  6628                           ; BSR set to: 15
  6629                           ;CANlib.h: 497: TXB2SIDL = (unsigned char) tamp;
  6630  00137C  C07A  FF22         	movff	CANsendMessage@tamp,3874	;volatile
  6631  001380                     l4626:
  6632                           
  6633                           ;CANlib.h: 498: }
  6634                           ;CANlib.h: 500: if (0b00000001 & flags)
  6635  001380  0100               	movlb	0	; () banked
  6636  001382  A175               	btfss	CANsendMessage@flags& (0+255),0,b
  6637  001384  D003               	goto	l406
  6638                           
  6639                           ; BSR set to: 0
  6640                           ;CANlib.h: 501: TXB2CONbits.TXPRI0 = 0x01;
  6641  001386  010F               	movlb	15	; () banked
  6642  001388  8120               	bsf	32,0,b	;volatile
  6643  00138A  D002               	goto	l407
  6644  00138C                     l406:
  6645                           
  6646                           ; BSR set to: 0
  6647                           ;CANlib.h: 502: else
  6648                           ;CANlib.h: 503: TXB2CONbits.TXPRI0 = 0x00;
  6649  00138C  010F               	movlb	15	; () banked
  6650  00138E  9120               	bcf	32,0,b	;volatile
  6651  001390                     l407:
  6652                           
  6653                           ; BSR set to: 15
  6654                           ;CANlib.h: 504: if (0b00000010 & flags)
  6655  001390  0100               	movlb	0	; () banked
  6656  001392  A375               	btfss	CANsendMessage@flags& (0+255),1,b
  6657  001394  D003               	goto	l408
  6658                           
  6659                           ; BSR set to: 0
  6660                           ;CANlib.h: 505: TXB2CONbits.TXPRI1 = 0x01;
  6661  001396  010F               	movlb	15	; () banked
  6662  001398  8320               	bsf	32,1,b	;volatile
  6663  00139A  D002               	goto	l4632
  6664  00139C                     l408:
  6665                           
  6666                           ; BSR set to: 0
  6667                           ;CANlib.h: 506: else
  6668                           ;CANlib.h: 507: TXB2CONbits.TXPRI1 = 0x00;
  6669  00139C  010F               	movlb	15	; () banked
  6670  00139E  9320               	bcf	32,1,b	;volatile
  6671  0013A0                     l4632:
  6672                           
  6673                           ; BSR set to: 15
  6674                           ;CANlib.h: 509: TXB2D0 = data[0];
  6675  0013A0  C072  FFD9         	movff	CANsendMessage@data,fsr2l
  6676  0013A4  C073  FFDA         	movff	CANsendMessage@data+1,fsr2h
  6677  0013A8  50DF               	movf	indf2,w,c
  6678  0013AA  010F               	movlb	15	; () banked
  6679  0013AC  6F26               	movwf	38,b	;volatile
  6680                           
  6681                           ; BSR set to: 15
  6682                           ;CANlib.h: 510: TXB2D1 = data[1];
  6683  0013AE  0100               	movlb	0	; () banked
  6684  0013B0  EE20 F001          	lfsr	2,1
  6685  0013B4  5172               	movf	CANsendMessage@data& (0+255),w,b
  6686  0013B6  26D9               	addwf	fsr2l,f,c
  6687  0013B8  5173               	movf	(CANsendMessage@data+1)& (0+255),w,b
  6688  0013BA  22DA               	addwfc	fsr2h,f,c
  6689  0013BC  50DF               	movf	indf2,w,c
  6690  0013BE  010F               	movlb	15	; () banked
  6691  0013C0  6F27               	movwf	39,b	;volatile
  6692                           
  6693                           ; BSR set to: 15
  6694                           ;CANlib.h: 511: TXB2D2 = data[2];
  6695  0013C2  0100               	movlb	0	; () banked
  6696  0013C4  EE20 F002          	lfsr	2,2
  6697  0013C8  5172               	movf	CANsendMessage@data& (0+255),w,b
  6698  0013CA  26D9               	addwf	fsr2l,f,c
  6699  0013CC  5173               	movf	(CANsendMessage@data+1)& (0+255),w,b
  6700  0013CE  22DA               	addwfc	fsr2h,f,c
  6701  0013D0  50DF               	movf	indf2,w,c
  6702  0013D2  010F               	movlb	15	; () banked
  6703  0013D4  6F28               	movwf	40,b	;volatile
  6704                           
  6705                           ; BSR set to: 15
  6706                           ;CANlib.h: 512: TXB2D3 = data[3];
  6707  0013D6  0100               	movlb	0	; () banked
  6708  0013D8  EE20 F003          	lfsr	2,3
  6709  0013DC  5172               	movf	CANsendMessage@data& (0+255),w,b
  6710  0013DE  26D9               	addwf	fsr2l,f,c
  6711  0013E0  5173               	movf	(CANsendMessage@data+1)& (0+255),w,b
  6712  0013E2  22DA               	addwfc	fsr2h,f,c
  6713  0013E4  50DF               	movf	indf2,w,c
  6714  0013E6  010F               	movlb	15	; () banked
  6715  0013E8  6F29               	movwf	41,b	;volatile
  6716                           
  6717                           ; BSR set to: 15
  6718                           ;CANlib.h: 513: TXB2D4 = data[4];
  6719  0013EA  0100               	movlb	0	; () banked
  6720  0013EC  EE20 F004          	lfsr	2,4
  6721  0013F0  5172               	movf	CANsendMessage@data& (0+255),w,b
  6722  0013F2  26D9               	addwf	fsr2l,f,c
  6723  0013F4  5173               	movf	(CANsendMessage@data+1)& (0+255),w,b
  6724  0013F6  22DA               	addwfc	fsr2h,f,c
  6725  0013F8  50DF               	movf	indf2,w,c
  6726  0013FA  010F               	movlb	15	; () banked
  6727  0013FC  6F2A               	movwf	42,b	;volatile
  6728                           
  6729                           ; BSR set to: 15
  6730                           ;CANlib.h: 514: TXB2D5 = data[5];
  6731  0013FE  0100               	movlb	0	; () banked
  6732  001400  EE20 F005          	lfsr	2,5
  6733  001404  5172               	movf	CANsendMessage@data& (0+255),w,b
  6734  001406  26D9               	addwf	fsr2l,f,c
  6735  001408  5173               	movf	(CANsendMessage@data+1)& (0+255),w,b
  6736  00140A  22DA               	addwfc	fsr2h,f,c
  6737  00140C  50DF               	movf	indf2,w,c
  6738  00140E  010F               	movlb	15	; () banked
  6739  001410  6F2B               	movwf	43,b	;volatile
  6740                           
  6741                           ; BSR set to: 15
  6742                           ;CANlib.h: 515: TXB2D6 = data[6];
  6743  001412  0100               	movlb	0	; () banked
  6744  001414  EE20 F006          	lfsr	2,6
  6745  001418  5172               	movf	CANsendMessage@data& (0+255),w,b
  6746  00141A  26D9               	addwf	fsr2l,f,c
  6747  00141C  5173               	movf	(CANsendMessage@data+1)& (0+255),w,b
  6748  00141E  22DA               	addwfc	fsr2h,f,c
  6749  001420  50DF               	movf	indf2,w,c
  6750  001422  010F               	movlb	15	; () banked
  6751  001424  6F2C               	movwf	44,b	;volatile
  6752                           
  6753                           ; BSR set to: 15
  6754                           ;CANlib.h: 516: TXB2D7 = data[7];
  6755  001426  0100               	movlb	0	; () banked
  6756  001428  EE20 F007          	lfsr	2,7
  6757  00142C  5172               	movf	CANsendMessage@data& (0+255),w,b
  6758  00142E  26D9               	addwf	fsr2l,f,c
  6759  001430  5173               	movf	(CANsendMessage@data+1)& (0+255),w,b
  6760  001432  22DA               	addwfc	fsr2h,f,c
  6761  001434  50DF               	movf	indf2,w,c
  6762  001436  010F               	movlb	15	; () banked
  6763  001438  6F2D               	movwf	45,b	;volatile
  6764                           
  6765                           ; BSR set to: 15
  6766                           ;CANlib.h: 518: TXB2CONbits.TXREQ = 0x01;
  6767  00143A  010F               	movlb	15	; () banked
  6768  00143C  8720               	bsf	32,3,b	;volatile
  6769                           
  6770                           ; BSR set to: 15
  6771                           ;CANlib.h: 520: return;
  6772  00143E  0012               	return	
  6773  001440                     __end_of_CANsendMessage:
  6774                           	opt stack 0
  6775                           tblptru	equ	0xFF8
  6776                           tblptrh	equ	0xFF7
  6777                           tblptrl	equ	0xFF6
  6778                           tablat	equ	0xFF5
  6779                           prodh	equ	0xFF4
  6780                           prodl	equ	0xFF3
  6781                           intcon	equ	0xFF2
  6782                           intcon2	equ	0xFF1
  6783                           postinc0	equ	0xFEE
  6784                           wreg	equ	0xFE8
  6785                           indf2	equ	0xFDF
  6786                           fsr2h	equ	0xFDA
  6787                           fsr2l	equ	0xFD9
  6788                           status	equ	0xFD8
  6789                           
  6790 ;; *************** function _CANisTxReady *****************
  6791 ;; Defined at:
  6792 ;;		line 1154 in file "CANlib.h"
  6793 ;; Parameters:    Size  Location     Type
  6794 ;;		None
  6795 ;; Auto vars:     Size  Location     Type
  6796 ;;		None
  6797 ;; Return value:  Size  Location     Type
  6798 ;;                  1    wreg      unsigned char 
  6799 ;; Registers used:
  6800 ;;		wreg, status,2
  6801 ;; Tracked objects:
  6802 ;;		On entry : 0/0
  6803 ;;		On exit  : 0/0
  6804 ;;		Unchanged: 0/0
  6805 ;; Data sizes:     COMRAM   BANK0   BANK1   BANK2
  6806 ;;      Params:         0       0       0       0
  6807 ;;      Locals:         0       1       0       0
  6808 ;;      Temps:          0       0       0       0
  6809 ;;      Totals:         0       1       0       0
  6810 ;;Total ram usage:        1 bytes
  6811 ;; Hardware stack levels used:    1
  6812 ;; Hardware stack levels required when called:    3
  6813 ;; This function calls:
  6814 ;;		Nothing
  6815 ;; This function is called by:
  6816 ;;		_send_data
  6817 ;;		_battery_measure
  6818 ;; This function uses a non-reentrant model
  6819 ;;
  6820                           
  6821                           	psect	text12
  6822  002786                     __ptext12:
  6823                           	opt stack 0
  6824  002786                     _CANisTxReady:
  6825                           	opt stack 26
  6826                           
  6827                           ;CANlib.h: 1156: return (!TXB0CONbits.TXREQ || !TXB1CONbits.TXREQ || !TXB2CONbits.TXREQ)
      +                          ;
  6828                           
  6829                           ; BSR set to: 15
  6830                           ;incstack = 0
  6831  002786  0E01               	movlw	1
  6832  002788  0100               	movlb	0	; () banked
  6833  00278A  6F6E               	movwf	_CANisTxReady$3033& (0+255),b
  6834                           
  6835                           ; BSR set to: 0
  6836  00278C  010F               	movlb	15	; () banked
  6837  00278E  A740               	btfss	64,3,b	;volatile
  6838  002790  D009               	goto	l560
  6839                           
  6840                           ; BSR set to: 15
  6841  002792  010F               	movlb	15	; () banked
  6842  002794  A730               	btfss	48,3,b	;volatile
  6843  002796  D006               	goto	l560
  6844                           
  6845                           ; BSR set to: 15
  6846  002798  010F               	movlb	15	; () banked
  6847  00279A  A720               	btfss	32,3,b	;volatile
  6848  00279C  D003               	goto	l560
  6849                           
  6850                           ; BSR set to: 15
  6851  00279E  0E00               	movlw	0
  6852  0027A0  0100               	movlb	0	; () banked
  6853  0027A2  6F6E               	movwf	_CANisTxReady$3033& (0+255),b
  6854  0027A4                     l560:
  6855  0027A4  0100               	movlb	0	; () banked
  6856  0027A6  516E               	movf	_CANisTxReady$3033& (0+255),w,b
  6857  0027A8  0012               	return	
  6858  0027AA                     __end_of_CANisTxReady:
  6859                           	opt stack 0
  6860                           tblptru	equ	0xFF8
  6861                           tblptrh	equ	0xFF7
  6862                           tblptrl	equ	0xFF6
  6863                           tablat	equ	0xFF5
  6864                           prodh	equ	0xFF4
  6865                           prodl	equ	0xFF3
  6866                           intcon	equ	0xFF2
  6867                           intcon2	equ	0xFF1
  6868                           postinc0	equ	0xFEE
  6869                           wreg	equ	0xFE8
  6870                           indf2	equ	0xFDF
  6871                           fsr2h	equ	0xFDA
  6872                           fsr2l	equ	0xFD9
  6873                           status	equ	0xFD8
  6874                           
  6875 ;; *************** function _abs *****************
  6876 ;; Defined at:
  6877 ;;		line 4 in file "C:\Program Files (x86)\Microchip\xc8\v1.35\sources\common\abs.c"
  6878 ;; Parameters:    Size  Location     Type
  6879 ;;  a               2   14[BANK0 ] int 
  6880 ;; Auto vars:     Size  Location     Type
  6881 ;;		None
  6882 ;; Return value:  Size  Location     Type
  6883 ;;                  2   14[BANK0 ] int 
  6884 ;; Registers used:
  6885 ;;		wreg, status,2, status,0
  6886 ;; Tracked objects:
  6887 ;;		On entry : 0/0
  6888 ;;		On exit  : 0/0
  6889 ;;		Unchanged: 0/0
  6890 ;; Data sizes:     COMRAM   BANK0   BANK1   BANK2
  6891 ;;      Params:         0       2       0       0
  6892 ;;      Locals:         0       0       0       0
  6893 ;;      Temps:          0       2       0       0
  6894 ;;      Totals:         0       4       0       0
  6895 ;;Total ram usage:        4 bytes
  6896 ;; Hardware stack levels used:    1
  6897 ;; Hardware stack levels required when called:    3
  6898 ;; This function calls:
  6899 ;;		Nothing
  6900 ;; This function is called by:
  6901 ;;		_main
  6902 ;; This function uses a non-reentrant model
  6903 ;;
  6904                           
  6905                           	psect	text13
  6906  00275A                     __ptext13:
  6907                           	opt stack 0
  6908  00275A                     _abs:
  6909                           	opt stack 27
  6910                           
  6911                           ; BSR set to: 0
  6912                           ;incstack = 0
  6913  00275A  0100               	movlb	0	; () banked
  6914  00275C  AF6F               	btfss	(abs@a+1)& (0+255),7,b
  6915  00275E  D00E               	goto	l820
  6916                           
  6917                           ; BSR set to: 0
  6918  002760  C06E  F070         	movff	abs@a,??_abs
  6919  002764  C06F  F071         	movff	abs@a+1,??_abs+1
  6920  002768  0100               	movlb	0	; () banked
  6921  00276A  1F70               	comf	??_abs& (0+255),f,b
  6922  00276C  1F71               	comf	(??_abs+1)& (0+255),f,b
  6923  00276E  4B70               	infsnz	??_abs& (0+255),f,b
  6924  002770  2B71               	incf	(??_abs+1)& (0+255),f,b
  6925  002772  C070  F06E         	movff	??_abs,?_abs
  6926  002776  C071  F06F         	movff	??_abs+1,?_abs+1
  6927  00277A  0012               	return	
  6928  00277C                     l820:
  6929                           
  6930                           ; BSR set to: 0
  6931  00277C  C06E  F06E         	movff	abs@a,?_abs
  6932  002780  C06F  F06F         	movff	abs@a+1,?_abs+1
  6933                           
  6934                           ; BSR set to: 0
  6935  002784  0012               	return		;funcret
  6936  002786                     __end_of_abs:
  6937                           	opt stack 0
  6938                           tblptru	equ	0xFF8
  6939                           tblptrh	equ	0xFF7
  6940                           tblptrl	equ	0xFF6
  6941                           tablat	equ	0xFF5
  6942                           prodh	equ	0xFF4
  6943                           prodl	equ	0xFF3
  6944                           intcon	equ	0xFF2
  6945                           intcon2	equ	0xFF1
  6946                           postinc0	equ	0xFEE
  6947                           wreg	equ	0xFE8
  6948                           indf2	equ	0xFDF
  6949                           fsr2h	equ	0xFDA
  6950                           fsr2l	equ	0xFD9
  6951                           status	equ	0xFD8
  6952                           
  6953 ;; *************** function _SetOutputEPWM1 *****************
  6954 ;; Defined at:
  6955 ;;		line 18 in file "C:\Program Files (x86)\Microchip\xc8\v1.35\sources\pic18\plib\PWM\ew1setoc.c"
  6956 ;; Parameters:    Size  Location     Type
  6957 ;;  outputconfig    1    wreg     unsigned char 
  6958 ;;  outputmode      1   14[BANK0 ] unsigned char 
  6959 ;; Auto vars:     Size  Location     Type
  6960 ;;  outputconfig    1   15[BANK0 ] unsigned char 
  6961 ;; Return value:  Size  Location     Type
  6962 ;;		None               void
  6963 ;; Registers used:
  6964 ;;		wreg, status,2, status,0
  6965 ;; Tracked objects:
  6966 ;;		On entry : 0/0
  6967 ;;		On exit  : 0/0
  6968 ;;		Unchanged: 0/0
  6969 ;; Data sizes:     COMRAM   BANK0   BANK1   BANK2
  6970 ;;      Params:         0       1       0       0
  6971 ;;      Locals:         0       1       0       0
  6972 ;;      Temps:          0       0       0       0
  6973 ;;      Totals:         0       2       0       0
  6974 ;;Total ram usage:        2 bytes
  6975 ;; Hardware stack levels used:    1
  6976 ;; Hardware stack levels required when called:    3
  6977 ;; This function calls:
  6978 ;;		Nothing
  6979 ;; This function is called by:
  6980 ;;		_main
  6981 ;; This function uses a non-reentrant model
  6982 ;;
  6983                           
  6984                           	psect	text14
  6985  002612                     __ptext14:
  6986                           	opt stack 0
  6987  002612                     _SetOutputEPWM1:
  6988                           	opt stack 27
  6989                           
  6990                           ; BSR set to: 0
  6991                           ;incstack = 0
  6992                           ;SetOutputEPWM1@outputconfig stored from wreg
  6993  002612  0100               	movlb	0	; () banked
  6994  002614  6F6F               	movwf	SetOutputEPWM1@outputconfig& (0+255),b
  6995  002616  50BA               	movf	4026,w,c	;volatile
  6996  002618  09C0               	iorlw	192
  6997  00261A  0100               	movlb	0	; () banked
  6998  00261C  156F               	andwf	SetOutputEPWM1@outputconfig& (0+255),w,b
  6999  00261E  6EBA               	movwf	4026,c	;volatile
  7000  002620  50BA               	movf	4026,w,c	;volatile
  7001  002622  090F               	iorlw	15
  7002  002624  0100               	movlb	0	; () banked
  7003  002626  156E               	andwf	SetOutputEPWM1@outputmode& (0+255),w,b
  7004  002628  6EBA               	movwf	4026,c	;volatile
  7005  00262A  0E3F               	movlw	63
  7006  00262C  0100               	movlb	0	; () banked
  7007  00262E  196F               	xorwf	SetOutputEPWM1@outputconfig& (0+255),w,b
  7008  002630  A4D8               	btfss	status,2,c
  7009  002632  D002               	goto	l4844
  7010                           
  7011                           ; BSR set to: 0
  7012  002634  9895               	bcf	3989,4,c	;volatile
  7013  002636  0012               	return	
  7014  002638                     l4844:
  7015                           
  7016                           ; BSR set to: 0
  7017  002638  0EBF               	movlw	191
  7018  00263A  0100               	movlb	0	; () banked
  7019  00263C  196F               	xorwf	SetOutputEPWM1@outputconfig& (0+255),w,b
  7020  00263E  A4D8               	btfss	status,2,c
  7021  002640  D003               	goto	l4848
  7022                           
  7023                           ; BSR set to: 0
  7024  002642  9895               	bcf	3989,4,c	;volatile
  7025  002644  9A95               	bcf	3989,5,c	;volatile
  7026  002646  0012               	return	
  7027  002648                     l4848:
  7028                           
  7029                           ; BSR set to: 0
  7030  002648  0E7F               	movlw	127
  7031  00264A  0100               	movlb	0	; () banked
  7032  00264C  196F               	xorwf	SetOutputEPWM1@outputconfig& (0+255),w,b
  7033  00264E  B4D8               	btfsc	status,2,c
  7034  002650  D004               	goto	l754
  7035                           
  7036                           ; BSR set to: 0
  7037  002652  0100               	movlb	0	; () banked
  7038  002654  296F               	incf	SetOutputEPWM1@outputconfig& (0+255),w,b
  7039  002656  A4D8               	btfss	status,2,c
  7040  002658  0012               	return	
  7041  00265A                     l754:
  7042                           
  7043                           ; BSR set to: 0
  7044  00265A  9895               	bcf	3989,4,c	;volatile
  7045  00265C  9A95               	bcf	3989,5,c	;volatile
  7046  00265E  9C95               	bcf	3989,6,c	;volatile
  7047  002660  9E95               	bcf	3989,7,c	;volatile
  7048                           
  7049                           ; BSR set to: 0
  7050                           
  7051                           ; BSR set to: 0
  7052  002662  0012               	return	
  7053  002664                     __end_of_SetOutputEPWM1:
  7054                           	opt stack 0
  7055                           tblptru	equ	0xFF8
  7056                           tblptrh	equ	0xFF7
  7057                           tblptrl	equ	0xFF6
  7058                           tablat	equ	0xFF5
  7059                           prodh	equ	0xFF4
  7060                           prodl	equ	0xFF3
  7061                           intcon	equ	0xFF2
  7062                           intcon2	equ	0xFF1
  7063                           postinc0	equ	0xFEE
  7064                           wreg	equ	0xFE8
  7065                           indf2	equ	0xFDF
  7066                           fsr2h	equ	0xFDA
  7067                           fsr2l	equ	0xFD9
  7068                           status	equ	0xFD8
  7069                           
  7070 ;; *************** function _SetDCEPWM1 *****************
  7071 ;; Defined at:
  7072 ;;		line 15 in file "C:\Program Files (x86)\Microchip\xc8\v1.35\sources\pic18\plib\PWM\ew1setdc.c"
  7073 ;; Parameters:    Size  Location     Type
  7074 ;;  dutycycle       2   14[BANK0 ] unsigned int 
  7075 ;; Auto vars:     Size  Location     Type
  7076 ;;  DCycle          2   18[BANK0 ] struct PWMDC
  7077 ;; Return value:  Size  Location     Type
  7078 ;;		None               void
  7079 ;; Registers used:
  7080 ;;		wreg, status,2, status,0
  7081 ;; Tracked objects:
  7082 ;;		On entry : 0/0
  7083 ;;		On exit  : 0/0
  7084 ;;		Unchanged: 0/0
  7085 ;; Data sizes:     COMRAM   BANK0   BANK1   BANK2
  7086 ;;      Params:         0       2       0       0
  7087 ;;      Locals:         0       2       0       0
  7088 ;;      Temps:          0       2       0       0
  7089 ;;      Totals:         0       6       0       0
  7090 ;;Total ram usage:        6 bytes
  7091 ;; Hardware stack levels used:    1
  7092 ;; Hardware stack levels required when called:    3
  7093 ;; This function calls:
  7094 ;;		Nothing
  7095 ;; This function is called by:
  7096 ;;		_main
  7097 ;; This function uses a non-reentrant model
  7098 ;;
  7099                           
  7100                           	psect	text15
  7101  002664                     __ptext15:
  7102                           	opt stack 0
  7103  002664                     _SetDCEPWM1:
  7104                           	opt stack 27
  7105                           
  7106                           ; BSR set to: 0
  7107                           ;incstack = 0
  7108  002664  C06E  F070         	movff	SetDCEPWM1@dutycycle,??_SetDCEPWM1
  7109  002668  C06F  F071         	movff	SetDCEPWM1@dutycycle+1,??_SetDCEPWM1+1
  7110  00266C  0E06               	movlw	6
  7111  00266E                     u6255:
  7112  00266E  90D8               	bcf	status,0,c
  7113  002670  0100               	movlb	0	; () banked
  7114  002672  3770               	rlcf	??_SetDCEPWM1& (0+255),f,b
  7115  002674  3771               	rlcf	(??_SetDCEPWM1+1)& (0+255),f,b
  7116  002676  2EE8               	decfsz	wreg,f,c
  7117  002678  D7FA               	goto	u6255
  7118  00267A  C070  F072         	movff	??_SetDCEPWM1,SetDCEPWM1@DCycle
  7119  00267E  C071  F073         	movff	??_SetDCEPWM1+1,SetDCEPWM1@DCycle+1
  7120                           
  7121                           ; BSR set to: 0
  7122  002682  C073  FFBB         	movff	SetDCEPWM1@DCycle+1,4027	;volatile
  7123  002686  C072  F070         	movff	SetDCEPWM1@DCycle,??_SetDCEPWM1
  7124  00268A  0100               	movlb	0	; () banked
  7125  00268C  90D8               	bcf	status,0,c
  7126  00268E  3370               	rrcf	??_SetDCEPWM1& (0+255),f,b
  7127  002690  0100               	movlb	0	; () banked
  7128  002692  90D8               	bcf	status,0,c
  7129  002694  3370               	rrcf	??_SetDCEPWM1& (0+255),f,b
  7130  002696  0E30               	movlw	48
  7131  002698  0100               	movlb	0	; () banked
  7132  00269A  1770               	andwf	??_SetDCEPWM1& (0+255),f,b
  7133  00269C  50BA               	movf	4026,w,c	;volatile
  7134  00269E  0BCF               	andlw	207
  7135  0026A0  0100               	movlb	0	; () banked
  7136  0026A2  1170               	iorwf	??_SetDCEPWM1& (0+255),w,b
  7137  0026A4  6EBA               	movwf	4026,c	;volatile
  7138                           
  7139                           ; BSR set to: 0
  7140  0026A6  0012               	return		;funcret
  7141  0026A8                     __end_of_SetDCEPWM1:
  7142                           	opt stack 0
  7143                           tblptru	equ	0xFF8
  7144                           tblptrh	equ	0xFF7
  7145                           tblptrl	equ	0xFF6
  7146                           tablat	equ	0xFF5
  7147                           prodh	equ	0xFF4
  7148                           prodl	equ	0xFF3
  7149                           intcon	equ	0xFF2
  7150                           intcon2	equ	0xFF1
  7151                           postinc0	equ	0xFEE
  7152                           wreg	equ	0xFE8
  7153                           indf2	equ	0xFDF
  7154                           fsr2h	equ	0xFDA
  7155                           fsr2l	equ	0xFD9
  7156                           status	equ	0xFD8
  7157                           
  7158 ;; *************** function _OpenTimer2 *****************
  7159 ;; Defined at:
  7160 ;;		line 17 in file "C:\Program Files (x86)\Microchip\xc8\v1.35\sources\pic18\plib\Timers\t2open.c"
  7161 ;; Parameters:    Size  Location     Type
  7162 ;;  config          1    wreg     unsigned char 
  7163 ;; Auto vars:     Size  Location     Type
  7164 ;;  config          1   14[BANK0 ] unsigned char 
  7165 ;; Return value:  Size  Location     Type
  7166 ;;		None               void
  7167 ;; Registers used:
  7168 ;;		wreg, status,2, status,0
  7169 ;; Tracked objects:
  7170 ;;		On entry : 0/0
  7171 ;;		On exit  : 0/0
  7172 ;;		Unchanged: 0/0
  7173 ;; Data sizes:     COMRAM   BANK0   BANK1   BANK2
  7174 ;;      Params:         0       0       0       0
  7175 ;;      Locals:         0       1       0       0
  7176 ;;      Temps:          0       0       0       0
  7177 ;;      Totals:         0       1       0       0
  7178 ;;Total ram usage:        1 bytes
  7179 ;; Hardware stack levels used:    1
  7180 ;; Hardware stack levels required when called:    3
  7181 ;; This function calls:
  7182 ;;		Nothing
  7183 ;; This function is called by:
  7184 ;;		_main
  7185 ;; This function uses a non-reentrant model
  7186 ;;
  7187                           
  7188                           	psect	text16
  7189  0027AA                     __ptext16:
  7190                           	opt stack 0
  7191  0027AA                     _OpenTimer2:
  7192                           	opt stack 27
  7193                           
  7194                           ; BSR set to: 0
  7195                           ;incstack = 0
  7196                           ;OpenTimer2@config stored from wreg
  7197  0027AA  0100               	movlb	0	; () banked
  7198  0027AC  6F6E               	movwf	OpenTimer2@config& (0+255),b
  7199  0027AE  0100               	movlb	0	; () banked
  7200  0027B0  516E               	movf	OpenTimer2@config& (0+255),w,b
  7201  0027B2  0BFB               	andlw	251
  7202  0027B4  6ECA               	movwf	4042,c	;volatile
  7203                           
  7204                           ; BSR set to: 0
  7205  0027B6  0E00               	movlw	0
  7206  0027B8  6ECC               	movwf	4044,c	;volatile
  7207                           
  7208                           ; BSR set to: 0
  7209  0027BA  929E               	bcf	3998,1,c	;volatile
  7210                           
  7211                           ; BSR set to: 0
  7212  0027BC  0100               	movlb	0	; () banked
  7213  0027BE  AF6E               	btfss	OpenTimer2@config& (0+255),7,b
  7214  0027C0  D002               	goto	l768
  7215                           
  7216                           ; BSR set to: 0
  7217  0027C2  829D               	bsf	3997,1,c	;volatile
  7218  0027C4  D001               	goto	l769
  7219  0027C6                     l768:
  7220                           
  7221                           ; BSR set to: 0
  7222  0027C6  929D               	bcf	3997,1,c	;volatile
  7223  0027C8                     l769:
  7224                           
  7225                           ; BSR set to: 0
  7226  0027C8  84CA               	bsf	4042,2,c	;volatile
  7227                           
  7228                           ; BSR set to: 0
  7229  0027CA  0012               	return		;funcret
  7230  0027CC                     __end_of_OpenTimer2:
  7231                           	opt stack 0
  7232                           tblptru	equ	0xFF8
  7233                           tblptrh	equ	0xFF7
  7234                           tblptrl	equ	0xFF6
  7235                           tablat	equ	0xFF5
  7236                           prodh	equ	0xFF4
  7237                           prodl	equ	0xFF3
  7238                           intcon	equ	0xFF2
  7239                           intcon2	equ	0xFF1
  7240                           postinc0	equ	0xFEE
  7241                           wreg	equ	0xFE8
  7242                           indf2	equ	0xFDF
  7243                           fsr2h	equ	0xFDA
  7244                           fsr2l	equ	0xFD9
  7245                           status	equ	0xFD8
  7246                           
  7247 ;; *************** function _OpenEPWM1 *****************
  7248 ;; Defined at:
  7249 ;;		line 15 in file "C:\Program Files (x86)\Microchip\xc8\v1.35\sources\pic18\plib\PWM\ew1open.c"
  7250 ;; Parameters:    Size  Location     Type
  7251 ;;  period          1    wreg     unsigned char 
  7252 ;; Auto vars:     Size  Location     Type
  7253 ;;  period          1   14[BANK0 ] unsigned char 
  7254 ;; Return value:  Size  Location     Type
  7255 ;;		None               void
  7256 ;; Registers used:
  7257 ;;		wreg, status,2
  7258 ;; Tracked objects:
  7259 ;;		On entry : 0/0
  7260 ;;		On exit  : 0/0
  7261 ;;		Unchanged: 0/0
  7262 ;; Data sizes:     COMRAM   BANK0   BANK1   BANK2
  7263 ;;      Params:         0       0       0       0
  7264 ;;      Locals:         0       1       0       0
  7265 ;;      Temps:          0       0       0       0
  7266 ;;      Totals:         0       1       0       0
  7267 ;;Total ram usage:        1 bytes
  7268 ;; Hardware stack levels used:    1
  7269 ;; Hardware stack levels required when called:    3
  7270 ;; This function calls:
  7271 ;;		Nothing
  7272 ;; This function is called by:
  7273 ;;		_main
  7274 ;; This function uses a non-reentrant model
  7275 ;;
  7276                           
  7277                           	psect	text17
  7278  0027F8                     __ptext17:
  7279                           	opt stack 0
  7280  0027F8                     _OpenEPWM1:
  7281                           	opt stack 27
  7282                           
  7283                           ; BSR set to: 0
  7284                           ;incstack = 0
  7285                           ;OpenEPWM1@period stored from wreg
  7286  0027F8  0100               	movlb	0	; () banked
  7287  0027FA  6F6E               	movwf	OpenEPWM1@period& (0+255),b
  7288  0027FC  0E0C               	movlw	12
  7289  0027FE  6EBA               	movwf	4026,c	;volatile
  7290  002800  94CA               	bcf	4042,2,c	;volatile
  7291  002802  C06E  FFCB         	movff	OpenEPWM1@period,4043	;volatile
  7292  002806  84CA               	bsf	4042,2,c	;volatile
  7293  002808  0012               	return		;funcret
  7294  00280A                     __end_of_OpenEPWM1:
  7295                           	opt stack 0
  7296                           tblptru	equ	0xFF8
  7297                           tblptrh	equ	0xFF7
  7298                           tblptrl	equ	0xFF6
  7299                           tablat	equ	0xFF5
  7300                           prodh	equ	0xFF4
  7301                           prodl	equ	0xFF3
  7302                           intcon	equ	0xFF2
  7303                           intcon2	equ	0xFF1
  7304                           postinc0	equ	0xFEE
  7305                           wreg	equ	0xFE8
  7306                           indf2	equ	0xFDF
  7307                           fsr2h	equ	0xFDA
  7308                           fsr2l	equ	0xFD9
  7309                           status	equ	0xFD8
  7310                           
  7311 ;; *************** function _CANisTXwarningON *****************
  7312 ;; Defined at:
  7313 ;;		line 1119 in file "CANlib.h"
  7314 ;; Parameters:    Size  Location     Type
  7315 ;;		None
  7316 ;; Auto vars:     Size  Location     Type
  7317 ;;		None
  7318 ;; Return value:  Size  Location     Type
  7319 ;;                  1    wreg      unsigned char 
  7320 ;; Registers used:
  7321 ;;		wreg
  7322 ;; Tracked objects:
  7323 ;;		On entry : 0/0
  7324 ;;		On exit  : 0/0
  7325 ;;		Unchanged: 0/0
  7326 ;; Data sizes:     COMRAM   BANK0   BANK1   BANK2
  7327 ;;      Params:         0       0       0       0
  7328 ;;      Locals:         0       0       0       0
  7329 ;;      Temps:          0       0       0       0
  7330 ;;      Totals:         0       0       0       0
  7331 ;;Total ram usage:        0 bytes
  7332 ;; Hardware stack levels used:    1
  7333 ;; Hardware stack levels required when called:    3
  7334 ;; This function calls:
  7335 ;;		Nothing
  7336 ;; This function is called by:
  7337 ;;		_main
  7338 ;; This function uses a non-reentrant model
  7339 ;;
  7340                           
  7341                           	psect	text18
  7342  00280A                     __ptext18:
  7343                           	opt stack 0
  7344  00280A                     _CANisTXwarningON:
  7345                           	opt stack 27
  7346                           
  7347                           ;CANlib.h: 1121: return (COMSTATbits.TXWARN);
  7348                           
  7349                           ;incstack = 0
  7350  00280A  A474               	btfss	3956,2,c	;volatile
  7351  00280C  D002               	goto	u6160
  7352  00280E  0E01               	movlw	1
  7353  002810  0012               	return	
  7354  002812                     u6160:
  7355  002812  0E00               	movlw	0
  7356  002814  0012               	return	
  7357  002816                     __end_of_CANisTXwarningON:
  7358                           	opt stack 0
  7359                           tblptru	equ	0xFF8
  7360                           tblptrh	equ	0xFF7
  7361                           tblptrl	equ	0xFF6
  7362                           tablat	equ	0xFF5
  7363                           prodh	equ	0xFF4
  7364                           prodl	equ	0xFF3
  7365                           intcon	equ	0xFF2
  7366                           intcon2	equ	0xFF1
  7367                           postinc0	equ	0xFEE
  7368                           wreg	equ	0xFE8
  7369                           indf2	equ	0xFDF
  7370                           fsr2h	equ	0xFDA
  7371                           fsr2l	equ	0xFD9
  7372                           status	equ	0xFD8
  7373                           
  7374 ;; *************** function _CANisRXwarningON *****************
  7375 ;; Defined at:
  7376 ;;		line 1127 in file "CANlib.h"
  7377 ;; Parameters:    Size  Location     Type
  7378 ;;		None
  7379 ;; Auto vars:     Size  Location     Type
  7380 ;;		None
  7381 ;; Return value:  Size  Location     Type
  7382 ;;                  1    wreg      unsigned char 
  7383 ;; Registers used:
  7384 ;;		wreg
  7385 ;; Tracked objects:
  7386 ;;		On entry : 0/0
  7387 ;;		On exit  : 0/0
  7388 ;;		Unchanged: 0/0
  7389 ;; Data sizes:     COMRAM   BANK0   BANK1   BANK2
  7390 ;;      Params:         0       0       0       0
  7391 ;;      Locals:         0       0       0       0
  7392 ;;      Temps:          0       0       0       0
  7393 ;;      Totals:         0       0       0       0
  7394 ;;Total ram usage:        0 bytes
  7395 ;; Hardware stack levels used:    1
  7396 ;; Hardware stack levels required when called:    3
  7397 ;; This function calls:
  7398 ;;		Nothing
  7399 ;; This function is called by:
  7400 ;;		_main
  7401 ;; This function uses a non-reentrant model
  7402 ;;
  7403                           
  7404                           	psect	text19
  7405  002816                     __ptext19:
  7406                           	opt stack 0
  7407  002816                     _CANisRXwarningON:
  7408                           	opt stack 27
  7409                           
  7410                           ;CANlib.h: 1129: return (COMSTATbits.RXWARN);
  7411                           
  7412                           ;incstack = 0
  7413  002816  A274               	btfss	3956,1,c	;volatile
  7414  002818  D002               	goto	u6170
  7415  00281A  0E01               	movlw	1
  7416  00281C  0012               	return	
  7417  00281E                     u6170:
  7418  00281E  0E00               	movlw	0
  7419  002820  0012               	return	
  7420  002822                     __end_of_CANisRXwarningON:
  7421                           	opt stack 0
  7422                           tblptru	equ	0xFF8
  7423                           tblptrh	equ	0xFF7
  7424                           tblptrl	equ	0xFF6
  7425                           tablat	equ	0xFF5
  7426                           prodh	equ	0xFF4
  7427                           prodl	equ	0xFF3
  7428                           intcon	equ	0xFF2
  7429                           intcon2	equ	0xFF1
  7430                           postinc0	equ	0xFEE
  7431                           wreg	equ	0xFE8
  7432                           indf2	equ	0xFDF
  7433                           fsr2h	equ	0xFDA
  7434                           fsr2l	equ	0xFD9
  7435                           status	equ	0xFD8
  7436                           
  7437 ;; *************** function _ISR_bassa *****************
  7438 ;; Defined at:
  7439 ;;		line 93 in file "motore.c"
  7440 ;; Parameters:    Size  Location     Type
  7441 ;;		None
  7442 ;; Auto vars:     Size  Location     Type
  7443 ;;		None
  7444 ;; Return value:  Size  Location     Type
  7445 ;;		None               void
  7446 ;; Registers used:
  7447 ;;		wreg, fsr2l, fsr2h, status,2, status,0, cstack
  7448 ;; Tracked objects:
  7449 ;;		On entry : 0/0
  7450 ;;		On exit  : 0/0
  7451 ;;		Unchanged: 0/0
  7452 ;; Data sizes:     COMRAM   BANK0   BANK1   BANK2
  7453 ;;      Params:         0       0       0       0
  7454 ;;      Locals:         0       0       0       0
  7455 ;;      Temps:         17       0       0       0
  7456 ;;      Totals:        17       0       0       0
  7457 ;;Total ram usage:       17 bytes
  7458 ;; Hardware stack levels used:    1
  7459 ;; Hardware stack levels required when called:    2
  7460 ;; This function calls:
  7461 ;;		_CANisRxReady
  7462 ;;		_CANreceiveMessage
  7463 ;; This function is called by:
  7464 ;;		Interrupt level 1
  7465 ;; This function uses a non-reentrant model
  7466 ;;
  7467                           
  7468                           	psect	intcodelo
  7469  000018                     __pintcodelo:
  7470                           	opt stack 0
  7471  000018                     _ISR_bassa:
  7472                           	opt stack 25
  7473                           
  7474                           ;incstack = 0
  7475  000018  8049               	bsf	btemp,0,c	;set compiler interrupt flag (level 1)
  7476  00001A  CFD8 F036          	movff	status,??_ISR_bassa
  7477  00001E  CFE8 F037          	movff	wreg,??_ISR_bassa+1
  7478  000022  CFE0 F038          	movff	bsr,??_ISR_bassa+2
  7479  000026  CFFA F039          	movff	pclath,??_ISR_bassa+3
  7480  00002A  CFFB F03A          	movff	pclatu,??_ISR_bassa+4
  7481  00002E  CFE9 F03B          	movff	fsr0l,??_ISR_bassa+5
  7482  000032  CFEA F03C          	movff	fsr0h,??_ISR_bassa+6
  7483  000036  CFE1 F03D          	movff	fsr1l,??_ISR_bassa+7
  7484  00003A  CFE2 F03E          	movff	fsr1h,??_ISR_bassa+8
  7485  00003E  CFD9 F03F          	movff	fsr2l,??_ISR_bassa+9
  7486  000042  CFDA F040          	movff	fsr2h,??_ISR_bassa+10
  7487  000046  CFF3 F041          	movff	prodl,??_ISR_bassa+11
  7488  00004A  CFF4 F042          	movff	prodh,??_ISR_bassa+12
  7489  00004E  CFF6 F043          	movff	tblptrl,??_ISR_bassa+13
  7490  000052  CFF7 F044          	movff	tblptrh,??_ISR_bassa+14
  7491  000056  CFF8 F045          	movff	tblptru,??_ISR_bassa+15
  7492  00005A  CFF5 F046          	movff	tablat,??_ISR_bassa+16
  7493                           
  7494                           ;motore.c: 94: if ((PIR3bits.RXB0IF == 1) || (PIR3bits.RXB1IF == 1)) {
  7495  00005E  A0A4               	btfss	4004,0,c	;volatile
  7496  000060  B2A4               	btfsc	4004,1,c	;volatile
  7497  000062  D001               	goto	i1l3768
  7498  000064  D07E               	goto	i1l670
  7499  000066                     i1l3768:
  7500                           
  7501                           ;motore.c: 95: if (CANisRxReady()) {
  7502  000066  ECF1  F013         	call	_CANisRxReady	;wreg free
  7503  00006A  0900               	iorlw	0
  7504  00006C  B4D8               	btfsc	status,2,c
  7505  00006E  D06C               	goto	i1l656
  7506                           
  7507                           ;motore.c: 96: CANreceiveMessage(&msg);
  7508  000070  0E1B               	movlw	low _msg
  7509  000072  6E2A               	movwf	CANreceiveMessage@msg,c
  7510  000074  0E00               	movlw	high _msg
  7511  000076  6E2B               	movwf	CANreceiveMessage@msg+1,c
  7512  000078  EC20  F00A         	call	_CANreceiveMessage	;wreg free
  7513                           
  7514                           ;motore.c: 97: if (msg.RTR == 1) {
  7515  00007C  0429               	decf	_msg+14,w,c
  7516  00007E  A4D8               	btfss	status,2,c
  7517  000080  D01E               	goto	i1l3778
  7518                           
  7519                           ;motore.c: 98: if (message_sent == 0) {
  7520  000082  B847               	btfsc	_message_sent/(0+8),_message_sent& (0+7),c
  7521  000084  D00F               	goto	i1l658
  7522                           
  7523                           ;motore.c: 99: id = msg.identifier;
  7524  000086  C01B  F00D         	movff	_msg,_id
  7525  00008A  C01C  F00E         	movff	_msg+1,_id+1
  7526  00008E  C01D  F00F         	movff	_msg+2,_id+2
  7527  000092  C01E  F010         	movff	_msg+3,_id+3
  7528                           
  7529                           ;motore.c: 100: remote_frame = msg.RTR;
  7530  000096  A029               	btfss	_msg+14,0,c
  7531  000098  D002               	goto	i1u435_20
  7532  00009A  8A47               	bsf	_remote_frame/(0+8),_remote_frame& (0+7),c
  7533  00009C  D001               	goto	i1u436_25
  7534  00009E                     i1u435_20:
  7535  00009E  9A47               	bcf	_remote_frame/(0+8),_remote_frame& (0+7),c
  7536  0000A0                     i1u436_25:
  7537                           
  7538                           ;motore.c: 101: message_sent = 1;
  7539  0000A0  8847               	bsf	_message_sent/(0+8),_message_sent& (0+7),c
  7540                           
  7541                           ;motore.c: 102: } else {
  7542  0000A2  D00D               	goto	i1l3778
  7543  0000A4                     i1l658:
  7544                           
  7545                           ;motore.c: 103: id1 = msg.identifier;
  7546  0000A4  C01B  F011         	movff	_msg,_id1
  7547  0000A8  C01C  F012         	movff	_msg+1,_id1+1
  7548  0000AC  C01D  F013         	movff	_msg+2,_id1+2
  7549  0000B0  C01E  F014         	movff	_msg+3,_id1+3
  7550                           
  7551                           ;motore.c: 104: remote_frame1 = msg.RTR;
  7552  0000B4  A029               	btfss	_msg+14,0,c
  7553  0000B6  D002               	goto	i1u437_20
  7554  0000B8  8C47               	bsf	_remote_frame1/(0+8),_remote_frame1& (0+7),c
  7555  0000BA  D001               	goto	i1l3778
  7556  0000BC                     i1u437_20:
  7557  0000BC  9C47               	bcf	_remote_frame1/(0+8),_remote_frame1& (0+7),c
  7558  0000BE                     i1l3778:
  7559                           
  7560                           ;motore.c: 105: }
  7561                           ;motore.c: 106: }
  7562                           ;motore.c: 107: if (msg.identifier == 0b00000000000000000000000000011) {
  7563  0000BE  0E03               	movlw	3
  7564  0000C0  181B               	xorwf	_msg,w,c
  7565  0000C2  101C               	iorwf	_msg+1,w,c
  7566  0000C4  101D               	iorwf	_msg+2,w,c
  7567  0000C6  101E               	iorwf	_msg+3,w,c
  7568  0000C8  A4D8               	btfss	status,2,c
  7569  0000CA  D00E               	goto	i1l3782
  7570                           
  7571                           ;motore.c: 108: currentSpeed = msg.data[0];
  7572  0000CC  C01F  F0BC         	movff	_msg+4,_currentSpeed
  7573                           
  7574                           ;motore.c: 109: dir = msg.data[1];
  7575  0000D0  C020  F0A9         	movff	_msg+5,_dir
  7576  0000D4  0100               	movlb	0	; () banked
  7577  0000D6  6BAA               	clrf	(_dir+1)& (0+255),b
  7578                           
  7579                           ;motore.c: 110: previousTimeCounter = timeCounter;
  7580  0000D8  C015  F099         	movff	_timeCounter,_previousTimeCounter
  7581  0000DC  C016  F09A         	movff	_timeCounter+1,_previousTimeCounter+1
  7582  0000E0  C017  F09B         	movff	_timeCounter+2,_previousTimeCounter+2
  7583  0000E4  C018  F09C         	movff	_timeCounter+3,_previousTimeCounter+3
  7584  0000E8                     i1l3782:
  7585                           
  7586                           ;motore.c: 111: }
  7587                           ;motore.c: 112: if (msg.identifier == 0b00000000000000000000000000001) {
  7588  0000E8  041B               	decf	_msg,w,c
  7589  0000EA  101C               	iorwf	_msg+1,w,c
  7590  0000EC  101D               	iorwf	_msg+2,w,c
  7591  0000EE  101E               	iorwf	_msg+3,w,c
  7592  0000F0  A4D8               	btfss	status,2,c
  7593  0000F2  D004               	goto	i1l3788
  7594                           
  7595                           ;motore.c: 113: currentSpeed = 0;
  7596  0000F4  0E00               	movlw	0
  7597  0000F6  0100               	movlb	0	; () banked
  7598  0000F8  6FBC               	movwf	_currentSpeed& (0+255),b
  7599                           
  7600                           ; BSR set to: 0
  7601                           ;motore.c: 114: PORTAbits.RA1 = 1;
  7602  0000FA  8280               	bsf	3968,1,c	;volatile
  7603  0000FC                     i1l3788:
  7604                           
  7605                           ;motore.c: 115: }
  7606                           ;motore.c: 116: if (msg.identifier == 0b00000000000000000000000000110) {
  7607  0000FC  0E06               	movlw	6
  7608  0000FE  181B               	xorwf	_msg,w,c
  7609  000100  101C               	iorwf	_msg+1,w,c
  7610  000102  101D               	iorwf	_msg+2,w,c
  7611  000104  101E               	iorwf	_msg+3,w,c
  7612  000106  A4D8               	btfss	status,2,c
  7613  000108  D005               	goto	i1l3792
  7614                           
  7615                           ;motore.c: 117: left_speed = msg.data[0];
  7616  00010A  C01F  F0B0         	movff	_msg+4,_left_speed
  7617                           
  7618                           ;motore.c: 118: right_speed = msg.data[1];
  7619  00010E  C020  F0B3         	movff	_msg+5,_right_speed
  7620                           
  7621                           ;motore.c: 119: speed_fetched = 1;
  7622  000112  8048               	bsf	_speed_fetched/(0+8),_speed_fetched& (0+7),c
  7623  000114                     i1l3792:
  7624                           
  7625                           ;motore.c: 120: }
  7626                           ;motore.c: 121: if (msg.identifier == 0b00000000000000000000000000010) {
  7627  000114  0E02               	movlw	2
  7628  000116  181B               	xorwf	_msg,w,c
  7629  000118  101C               	iorwf	_msg+1,w,c
  7630  00011A  101D               	iorwf	_msg+2,w,c
  7631  00011C  101E               	iorwf	_msg+3,w,c
  7632  00011E  B4D8               	btfsc	status,2,c
  7633  000120  D007               	goto	i1l3798
  7634  000122  D012               	goto	i1l656
  7635  000124                     i1l665:
  7636  000124  8247               	bsf	_centralina_abs/(0+8),_centralina_abs& (0+7),c
  7637                           
  7638                           ;motore.c: 124: break;
  7639  000126  D00E               	goto	i1l666
  7640  000128                     i1l667:
  7641  000128  8647               	bsf	_centralina_sterzo/(0+8),_centralina_sterzo& (0+7),c
  7642                           
  7643                           ;motore.c: 126: break;
  7644  00012A  D00C               	goto	i1l666
  7645  00012C                     i1l668:
  7646  00012C  8447               	bsf	_centralina_comando/(0+8),_centralina_comando& (0+7),c
  7647                           
  7648                           ;motore.c: 129: }
  7649                           
  7650                           ;motore.c: 128: break;
  7651  00012E  D00A               	goto	i1l666
  7652  000130                     i1l3798:
  7653  000130  501F               	movf	_msg+4,w,c
  7654                           
  7655                           ; Switch size 1, requested type "space"
  7656                           ; Number of cases is 3, Range of values is 1 to 3
  7657                           ; switch strategies available:
  7658                           ; Name         Instructions Cycles
  7659                           ; simple_byte           10     6 (average)
  7660                           ;	Chosen strategy is simple_byte
  7661  000132  0A01               	xorlw	1	; case 1
  7662  000134  B4D8               	btfsc	status,2,c
  7663  000136  D7F6               	goto	i1l665
  7664  000138  0A03               	xorlw	3	; case 2
  7665  00013A  B4D8               	btfsc	status,2,c
  7666  00013C  D7F5               	goto	i1l667
  7667  00013E  0A01               	xorlw	1	; case 3
  7668  000140  B4D8               	btfsc	status,2,c
  7669  000142  D7F4               	goto	i1l668
  7670  000144                     i1l666:
  7671                           
  7672                           ;motore.c: 130: PIR3bits.RXB0IF = 0;
  7673  000144  90A4               	bcf	4004,0,c	;volatile
  7674                           
  7675                           ;motore.c: 131: PIR3bits.RXB1IF = 0;
  7676  000146  92A4               	bcf	4004,1,c	;volatile
  7677  000148                     i1l656:
  7678                           
  7679                           ;motore.c: 132: }
  7680                           ;motore.c: 133: }
  7681                           ;motore.c: 134: if (PIR2bits.TMR3IF) {
  7682  000148  A2A1               	btfss	4001,1,c	;volatile
  7683  00014A  D00B               	goto	i1l670
  7684                           
  7685                           ;motore.c: 135: timeCounter++;
  7686  00014C  0E01               	movlw	1
  7687  00014E  2615               	addwf	_timeCounter,f,c
  7688  000150  0E00               	movlw	0
  7689  000152  2216               	addwfc	_timeCounter+1,f,c
  7690  000154  2217               	addwfc	_timeCounter+2,f,c
  7691  000156  2218               	addwfc	_timeCounter+3,f,c
  7692                           
  7693                           ;motore.c: 136: TMR3H = 0x63;
  7694  000158  0E63               	movlw	99
  7695  00015A  6EB3               	movwf	4019,c	;volatile
  7696                           
  7697                           ;motore.c: 137: TMR3L = 0xC0;
  7698  00015C  0EC0               	movlw	192
  7699  00015E  6EB2               	movwf	4018,c	;volatile
  7700                           
  7701                           ;motore.c: 138: PIR2bits.TMR3IF = 0;
  7702  000160  92A1               	bcf	4001,1,c	;volatile
  7703  000162                     i1l670:
  7704  000162  C046  FFF5         	movff	??_ISR_bassa+16,tablat
  7705  000166  C045  FFF8         	movff	??_ISR_bassa+15,tblptru
  7706  00016A  C044  FFF7         	movff	??_ISR_bassa+14,tblptrh
  7707  00016E  C043  FFF6         	movff	??_ISR_bassa+13,tblptrl
  7708  000172  C042  FFF4         	movff	??_ISR_bassa+12,prodh
  7709  000176  C041  FFF3         	movff	??_ISR_bassa+11,prodl
  7710  00017A  C040  FFDA         	movff	??_ISR_bassa+10,fsr2h
  7711  00017E  C03F  FFD9         	movff	??_ISR_bassa+9,fsr2l
  7712  000182  C03E  FFE2         	movff	??_ISR_bassa+8,fsr1h
  7713  000186  C03D  FFE1         	movff	??_ISR_bassa+7,fsr1l
  7714  00018A  C03C  FFEA         	movff	??_ISR_bassa+6,fsr0h
  7715  00018E  C03B  FFE9         	movff	??_ISR_bassa+5,fsr0l
  7716  000192  C03A  FFFB         	movff	??_ISR_bassa+4,pclatu
  7717  000196  C039  FFFA         	movff	??_ISR_bassa+3,pclath
  7718  00019A  C038  FFE0         	movff	??_ISR_bassa+2,bsr
  7719  00019E  C037  FFE8         	movff	??_ISR_bassa+1,wreg
  7720  0001A2  C036  FFD8         	movff	??_ISR_bassa,status
  7721  0001A6  9049               	bcf	btemp,0,c	;clear compiler interrupt flag (level 1)
  7722  0001A8  0010               	retfie	
  7723  0001AA                     __end_of_ISR_bassa:
  7724                           	opt stack 0
  7725                           pclatu	equ	0xFFB
  7726                           pclath	equ	0xFFA
  7727                           tblptru	equ	0xFF8
  7728                           tblptrh	equ	0xFF7
  7729                           tblptrl	equ	0xFF6
  7730                           tablat	equ	0xFF5
  7731                           prodh	equ	0xFF4
  7732                           prodl	equ	0xFF3
  7733                           intcon	equ	0xFF2
  7734                           intcon2	equ	0xFF1
  7735                           postinc0	equ	0xFEE
  7736                           fsr0h	equ	0xFEA
  7737                           fsr0l	equ	0xFE9
  7738                           wreg	equ	0xFE8
  7739                           fsr1h	equ	0xFE2
  7740                           fsr1l	equ	0xFE1
  7741                           bsr	equ	0xFE0
  7742                           indf2	equ	0xFDF
  7743                           fsr2h	equ	0xFDA
  7744                           fsr2l	equ	0xFD9
  7745                           status	equ	0xFD8
  7746                           
  7747 ;; *************** function _CANreceiveMessage *****************
  7748 ;; Defined at:
  7749 ;;		line 528 in file "CANlib.h"
  7750 ;; Parameters:    Size  Location     Type
  7751 ;;  msg             2    0[COMRAM] PTR struct .
  7752 ;;		 -> msg(15), 
  7753 ;; Auto vars:     Size  Location     Type
  7754 ;;  tamp            1   11[COMRAM] unsigned char 
  7755 ;;  error           1   10[COMRAM] unsigned char 
  7756 ;; Return value:  Size  Location     Type
  7757 ;;                  1    wreg      unsigned char 
  7758 ;; Registers used:
  7759 ;;		wreg, fsr2l, fsr2h, status,2, status,0
  7760 ;; Tracked objects:
  7761 ;;		On entry : 0/0
  7762 ;;		On exit  : 0/0
  7763 ;;		Unchanged: 0/0
  7764 ;; Data sizes:     COMRAM   BANK0   BANK1   BANK2
  7765 ;;      Params:         2       0       0       0
  7766 ;;      Locals:         2       0       0       0
  7767 ;;      Temps:          8       0       0       0
  7768 ;;      Totals:        12       0       0       0
  7769 ;;Total ram usage:       12 bytes
  7770 ;; Hardware stack levels used:    1
  7771 ;; Hardware stack levels required when called:    1
  7772 ;; This function calls:
  7773 ;;		Nothing
  7774 ;; This function is called by:
  7775 ;;		_ISR_bassa
  7776 ;; This function uses a non-reentrant model
  7777 ;;
  7778                           
  7779                           	psect	text21
  7780  001440                     __ptext21:
  7781                           	opt stack 0
  7782  001440                     _CANreceiveMessage:
  7783                           	opt stack 25
  7784                           
  7785                           ;CANlib.h: 530: BYTE tamp;
  7786                           ;CANlib.h: 531: BYTE error = 0;
  7787                           
  7788                           ;incstack = 0
  7789  001440  0E00               	movlw	0
  7790  001442  6E34               	movwf	CANreceiveMessage@error,c
  7791                           
  7792                           ;CANlib.h: 533: if (COMSTATbits.RXB0OVFL == 0x01)
  7793  001444  BE74               	btfsc	3956,7,c	;volatile
  7794                           
  7795                           ;CANlib.h: 534: error |= CAN_RX_BUFFER_1_OVFL;
  7796  001446  8034               	bsf	CANreceiveMessage@error,0,c
  7797                           
  7798                           ;CANlib.h: 536: if (COMSTATbits.RXB1OVFL == 0x01)
  7799  001448  BC74               	btfsc	3956,6,c	;volatile
  7800                           
  7801                           ;CANlib.h: 537: error |= CAN_RX_BUFFER_2_OVFL;
  7802  00144A  8234               	bsf	CANreceiveMessage@error,1,c
  7803                           
  7804                           ;CANlib.h: 540: if (RXB1CONbits.RXFUL ==0x01)
  7805  00144C  010F               	movlb	15	; () banked
  7806  00144E  AF50               	btfss	80,7,b	;volatile
  7807  001450  D143               	goto	i1l414
  7808                           
  7809                           ; BSR set to: 15
  7810                           ;CANlib.h: 541: {
  7811                           ;CANlib.h: 542: msg->identifier = 0;
  7812  001452  C02A  FFD9         	movff	CANreceiveMessage@msg,fsr2l
  7813  001456  C02B  FFDA         	movff	CANreceiveMessage@msg+1,fsr2h
  7814  00145A  6ADE               	clrf	postinc2,c
  7815  00145C  6ADE               	clrf	postinc2,c
  7816  00145E  6ADE               	clrf	postinc2,c
  7817  001460  6ADD               	clrf	postdec2,c
  7818                           
  7819                           ; BSR set to: 15
  7820                           ;CANlib.h: 543: msg->data[0] =RXB1D0;
  7821  001462  EE20 F004          	lfsr	2,4
  7822  001466  502A               	movf	CANreceiveMessage@msg,w,c
  7823  001468  26D9               	addwf	fsr2l,f,c
  7824  00146A  502B               	movf	CANreceiveMessage@msg+1,w,c
  7825  00146C  22DA               	addwfc	fsr2h,f,c
  7826  00146E  CF56 FFDF          	movff	3926,indf2	;volatile
  7827                           
  7828                           ; BSR set to: 15
  7829                           ;CANlib.h: 544: msg->data[1] =RXB1D1;
  7830  001472  EE20 F005          	lfsr	2,5
  7831  001476  502A               	movf	CANreceiveMessage@msg,w,c
  7832  001478  26D9               	addwf	fsr2l,f,c
  7833  00147A  502B               	movf	CANreceiveMessage@msg+1,w,c
  7834  00147C  22DA               	addwfc	fsr2h,f,c
  7835  00147E  CF57 FFDF          	movff	3927,indf2	;volatile
  7836                           
  7837                           ; BSR set to: 15
  7838                           ;CANlib.h: 545: msg->data[2] =RXB1D2;
  7839  001482  EE20 F006          	lfsr	2,6
  7840  001486  502A               	movf	CANreceiveMessage@msg,w,c
  7841  001488  26D9               	addwf	fsr2l,f,c
  7842  00148A  502B               	movf	CANreceiveMessage@msg+1,w,c
  7843  00148C  22DA               	addwfc	fsr2h,f,c
  7844  00148E  CF58 FFDF          	movff	3928,indf2	;volatile
  7845                           
  7846                           ; BSR set to: 15
  7847                           ;CANlib.h: 546: msg->data[3] =RXB1D3;
  7848  001492  EE20 F007          	lfsr	2,7
  7849  001496  502A               	movf	CANreceiveMessage@msg,w,c
  7850  001498  26D9               	addwf	fsr2l,f,c
  7851  00149A  502B               	movf	CANreceiveMessage@msg+1,w,c
  7852  00149C  22DA               	addwfc	fsr2h,f,c
  7853  00149E  CF59 FFDF          	movff	3929,indf2	;volatile
  7854                           
  7855                           ; BSR set to: 15
  7856                           ;CANlib.h: 547: msg->data[4] =RXB1D4;
  7857  0014A2  EE20 F008          	lfsr	2,8
  7858  0014A6  502A               	movf	CANreceiveMessage@msg,w,c
  7859  0014A8  26D9               	addwf	fsr2l,f,c
  7860  0014AA  502B               	movf	CANreceiveMessage@msg+1,w,c
  7861  0014AC  22DA               	addwfc	fsr2h,f,c
  7862  0014AE  CF5A FFDF          	movff	3930,indf2	;volatile
  7863                           
  7864                           ; BSR set to: 15
  7865                           ;CANlib.h: 548: msg->data[5] =RXB1D5;
  7866  0014B2  EE20 F009          	lfsr	2,9
  7867  0014B6  502A               	movf	CANreceiveMessage@msg,w,c
  7868  0014B8  26D9               	addwf	fsr2l,f,c
  7869  0014BA  502B               	movf	CANreceiveMessage@msg+1,w,c
  7870  0014BC  22DA               	addwfc	fsr2h,f,c
  7871  0014BE  CF5B FFDF          	movff	3931,indf2	;volatile
  7872                           
  7873                           ; BSR set to: 15
  7874                           ;CANlib.h: 549: msg->data[6] =RXB1D6;
  7875  0014C2  EE20 F00A          	lfsr	2,10
  7876  0014C6  502A               	movf	CANreceiveMessage@msg,w,c
  7877  0014C8  26D9               	addwf	fsr2l,f,c
  7878  0014CA  502B               	movf	CANreceiveMessage@msg+1,w,c
  7879  0014CC  22DA               	addwfc	fsr2h,f,c
  7880  0014CE  CF5C FFDF          	movff	3932,indf2	;volatile
  7881                           
  7882                           ; BSR set to: 15
  7883                           ;CANlib.h: 550: msg->data[7] =RXB1D7;
  7884  0014D2  EE20 F00B          	lfsr	2,11
  7885  0014D6  502A               	movf	CANreceiveMessage@msg,w,c
  7886  0014D8  26D9               	addwf	fsr2l,f,c
  7887  0014DA  502B               	movf	CANreceiveMessage@msg+1,w,c
  7888  0014DC  22DA               	addwfc	fsr2h,f,c
  7889  0014DE  CF5D FFDF          	movff	3933,indf2	;volatile
  7890                           
  7891                           ; BSR set to: 15
  7892                           ;CANlib.h: 552: msg->RTR = RXB1DLCbits.RXRTR;
  7893  0014E2  EE20 F00E          	lfsr	2,14
  7894  0014E6  502A               	movf	CANreceiveMessage@msg,w,c
  7895  0014E8  26D9               	addwf	fsr2l,f,c
  7896  0014EA  502B               	movf	CANreceiveMessage@msg+1,w,c
  7897  0014EC  22DA               	addwfc	fsr2h,f,c
  7898  0014EE  010F               	movlb	15	; () banked
  7899  0014F0  AD55               	btfss	85,6,b	;volatile
  7900  0014F2  D002               	goto	i1u386_20
  7901  0014F4  0E01               	movlw	1
  7902  0014F6  D001               	goto	i1u386_26
  7903  0014F8                     i1u386_20:
  7904  0014F8  0E00               	movlw	0
  7905  0014FA                     i1u386_26:
  7906  0014FA  6EDF               	movwf	indf2,c
  7907                           
  7908                           ; BSR set to: 15
  7909                           ;CANlib.h: 554: msg->length = RXB1DLC & 0x0F;
  7910  0014FC  EE20 F00D          	lfsr	2,13
  7911  001500  502A               	movf	CANreceiveMessage@msg,w,c
  7912  001502  26D9               	addwf	fsr2l,f,c
  7913  001504  502B               	movf	CANreceiveMessage@msg+1,w,c
  7914  001506  22DA               	addwfc	fsr2h,f,c
  7915  001508  010F               	movlb	15	; () banked
  7916  00150A  5155               	movf	85,w,b	;volatile
  7917  00150C  0B0F               	andlw	15
  7918  00150E  6EDF               	movwf	indf2,c
  7919                           
  7920                           ; BSR set to: 15
  7921                           ;CANlib.h: 556: msg->type = RXB1SIDLbits.EXID;
  7922  001510  EE20 F00C          	lfsr	2,12
  7923  001514  502A               	movf	CANreceiveMessage@msg,w,c
  7924  001516  26D9               	addwf	fsr2l,f,c
  7925  001518  502B               	movf	CANreceiveMessage@msg+1,w,c
  7926  00151A  22DA               	addwfc	fsr2h,f,c
  7927  00151C  010F               	movlb	15	; () banked
  7928  00151E  A752               	btfss	82,3,b	;volatile
  7929  001520  D002               	goto	i1u387_20
  7930  001522  0E01               	movlw	1
  7931  001524  D001               	goto	i1u387_26
  7932  001526                     i1u387_20:
  7933  001526  0E00               	movlw	0
  7934  001528                     i1u387_26:
  7935  001528  6EDF               	movwf	indf2,c
  7936                           
  7937                           ; BSR set to: 15
  7938                           ;CANlib.h: 558: if (RXB1SIDLbits.EXID == 0)
  7939  00152A  010F               	movlb	15	; () banked
  7940  00152C  B752               	btfsc	82,3,b	;volatile
  7941  00152E  D044               	goto	i1l3480
  7942                           
  7943                           ; BSR set to: 15
  7944                           ;CANlib.h: 559: {
  7945                           ;CANlib.h: 560: msg->identifier = ((unsigned long)RXB1SIDH)<< 3;
  7946  001530  CF51 F02C          	movff	3921,??_CANreceiveMessage	;volatile
  7947  001534  6A2D               	clrf	(??_CANreceiveMessage+1)& (0+255),c
  7948  001536  6A2E               	clrf	(??_CANreceiveMessage+2)& (0+255),c
  7949  001538  6A2F               	clrf	(??_CANreceiveMessage+3)& (0+255),c
  7950  00153A  0E03               	movlw	3
  7951  00153C                     i1u389_25:
  7952  00153C  90D8               	bcf	status,0,c
  7953  00153E  362C               	rlcf	??_CANreceiveMessage,f,c
  7954  001540  362D               	rlcf	??_CANreceiveMessage+1,f,c
  7955  001542  362E               	rlcf	??_CANreceiveMessage+2,f,c
  7956  001544  362F               	rlcf	??_CANreceiveMessage+3,f,c
  7957  001546  2EE8               	decfsz	wreg,f,c
  7958  001548  D7F9               	goto	i1u389_25
  7959  00154A  C02A  FFD9         	movff	CANreceiveMessage@msg,fsr2l
  7960  00154E  C02B  FFDA         	movff	CANreceiveMessage@msg+1,fsr2h
  7961  001552  C02C  FFDE         	movff	??_CANreceiveMessage,postinc2
  7962  001556  C02D  FFDE         	movff	??_CANreceiveMessage+1,postinc2
  7963  00155A  C02E  FFDE         	movff	??_CANreceiveMessage+2,postinc2
  7964  00155E  C02F  FFDE         	movff	??_CANreceiveMessage+3,postinc2
  7965                           
  7966                           ; BSR set to: 15
  7967                           ;CANlib.h: 561: tamp = (RXB1SIDL >> 5 ) & 0x07;
  7968  001562  010F               	movlb	15	; () banked
  7969  001564  3952               	swapf	82,w,b	;volatile
  7970  001566  42E8               	rrncf	wreg,f,c
  7971  001568  0B07               	andlw	7
  7972  00156A  0B07               	andlw	7
  7973  00156C  6E35               	movwf	CANreceiveMessage@tamp,c
  7974                           
  7975                           ; BSR set to: 15
  7976                           ;CANlib.h: 562: msg->identifier = msg->identifier + tamp;
  7977  00156E  C02A  FFD9         	movff	CANreceiveMessage@msg,fsr2l
  7978  001572  C02B  FFDA         	movff	CANreceiveMessage@msg+1,fsr2h
  7979  001576  CFDE F02C          	movff	postinc2,??_CANreceiveMessage
  7980  00157A  CFDE F02D          	movff	postinc2,??_CANreceiveMessage+1
  7981  00157E  CFDE F02E          	movff	postinc2,??_CANreceiveMessage+2
  7982  001582  CFDE F02F          	movff	postinc2,??_CANreceiveMessage+3
  7983  001586  5035               	movf	CANreceiveMessage@tamp,w,c
  7984  001588  242C               	addwf	??_CANreceiveMessage,w,c
  7985  00158A  6E30               	movwf	(??_CANreceiveMessage+4)& (0+255),c
  7986  00158C  0E00               	movlw	0
  7987  00158E  202D               	addwfc	??_CANreceiveMessage+1,w,c
  7988  001590  6E31               	movwf	(??_CANreceiveMessage+5)& (0+255),c
  7989  001592  0E00               	movlw	0
  7990  001594  202E               	addwfc	??_CANreceiveMessage+2,w,c
  7991  001596  6E32               	movwf	(??_CANreceiveMessage+6)& (0+255),c
  7992  001598  0E00               	movlw	0
  7993  00159A  202F               	addwfc	??_CANreceiveMessage+3,w,c
  7994  00159C  6E33               	movwf	(??_CANreceiveMessage+7)& (0+255),c
  7995  00159E  C02A  FFD9         	movff	CANreceiveMessage@msg,fsr2l
  7996  0015A2  C02B  FFDA         	movff	CANreceiveMessage@msg+1,fsr2h
  7997  0015A6  C030  FFDE         	movff	??_CANreceiveMessage+4,postinc2
  7998  0015AA  C031  FFDE         	movff	??_CANreceiveMessage+5,postinc2
  7999  0015AE  C032  FFDE         	movff	??_CANreceiveMessage+6,postinc2
  8000  0015B2  C033  FFDE         	movff	??_CANreceiveMessage+7,postinc2
  8001                           
  8002                           ;CANlib.h: 563: }
  8003  0015B6  D08D               	goto	i1l3506
  8004  0015B8                     i1l3480:
  8005                           
  8006                           ; BSR set to: 15
  8007                           ;CANlib.h: 564: else
  8008                           ;CANlib.h: 565: {
  8009                           ;CANlib.h: 566: msg->identifier = (unsigned long) RXB1EIDL;
  8010  0015B8  CF54 F02C          	movff	3924,??_CANreceiveMessage	;volatile
  8011  0015BC  6A2D               	clrf	(??_CANreceiveMessage+1)& (0+255),c
  8012  0015BE  6A2E               	clrf	(??_CANreceiveMessage+2)& (0+255),c
  8013  0015C0  6A2F               	clrf	(??_CANreceiveMessage+3)& (0+255),c
  8014  0015C2  C02A  FFD9         	movff	CANreceiveMessage@msg,fsr2l
  8015  0015C6  C02B  FFDA         	movff	CANreceiveMessage@msg+1,fsr2h
  8016  0015CA  C02C  FFDE         	movff	??_CANreceiveMessage,postinc2
  8017  0015CE  C02D  FFDE         	movff	??_CANreceiveMessage+1,postinc2
  8018  0015D2  C02E  FFDE         	movff	??_CANreceiveMessage+2,postinc2
  8019  0015D6  C02F  FFDE         	movff	??_CANreceiveMessage+3,postinc2
  8020                           
  8021                           ; BSR set to: 15
  8022                           ;CANlib.h: 567: msg->identifier += ((unsigned long) RXB1EIDH) << 8;
  8023  0015DA  CF53 F02C          	movff	3923,??_CANreceiveMessage	;volatile
  8024  0015DE  6A2D               	clrf	(??_CANreceiveMessage+1)& (0+255),c
  8025  0015E0  6A2E               	clrf	(??_CANreceiveMessage+2)& (0+255),c
  8026  0015E2  6A2F               	clrf	(??_CANreceiveMessage+3)& (0+255),c
  8027  0015E4  C02E  F02F         	movff	??_CANreceiveMessage+2,??_CANreceiveMessage+3
  8028  0015E8  C02D  F02E         	movff	??_CANreceiveMessage+1,??_CANreceiveMessage+2
  8029  0015EC  C02C  F02D         	movff	??_CANreceiveMessage,??_CANreceiveMessage+1
  8030  0015F0  6A2C               	clrf	??_CANreceiveMessage,c
  8031  0015F2  C02A  FFD9         	movff	CANreceiveMessage@msg,fsr2l
  8032  0015F6  C02B  FFDA         	movff	CANreceiveMessage@msg+1,fsr2h
  8033  0015FA  502C               	movf	??_CANreceiveMessage,w,c
  8034  0015FC  26DE               	addwf	postinc2,f,c
  8035  0015FE  502D               	movf	??_CANreceiveMessage+1,w,c
  8036  001600  22DE               	addwfc	postinc2,f,c
  8037  001602  502E               	movf	??_CANreceiveMessage+2,w,c
  8038  001604  22DE               	addwfc	postinc2,f,c
  8039  001606  502F               	movf	??_CANreceiveMessage+3,w,c
  8040  001608  22DE               	addwfc	postinc2,f,c
  8041                           
  8042                           ; BSR set to: 15
  8043                           ;CANlib.h: 569: if (RXB1SIDLbits.EID16)
  8044  00160A  010F               	movlb	15	; () banked
  8045  00160C  A152               	btfss	82,0,b	;volatile
  8046  00160E  D00C               	goto	i1l3488
  8047                           
  8048                           ; BSR set to: 15
  8049                           ;CANlib.h: 570: msg->identifier |= 0x00010000;
  8050  001610  C02A  FFD9         	movff	CANreceiveMessage@msg,fsr2l
  8051  001614  C02B  FFDA         	movff	CANreceiveMessage@msg+1,fsr2h
  8052  001618  0E00               	movlw	0
  8053  00161A  12DE               	iorwf	postinc2,f,c
  8054  00161C  0E00               	movlw	0
  8055  00161E  12DE               	iorwf	postinc2,f,c
  8056  001620  0E01               	movlw	1
  8057  001622  12DE               	iorwf	postinc2,f,c
  8058  001624  0E00               	movlw	0
  8059  001626  12DE               	iorwf	postinc2,f,c
  8060  001628                     i1l3488:
  8061                           
  8062                           ; BSR set to: 15
  8063                           ;CANlib.h: 571: if (RXB1SIDLbits.EID17)
  8064  001628  010F               	movlb	15	; () banked
  8065  00162A  A352               	btfss	82,1,b	;volatile
  8066  00162C  D00C               	goto	i1l3492
  8067                           
  8068                           ; BSR set to: 15
  8069                           ;CANlib.h: 572: msg->identifier |= 0x00020000;
  8070  00162E  C02A  FFD9         	movff	CANreceiveMessage@msg,fsr2l
  8071  001632  C02B  FFDA         	movff	CANreceiveMessage@msg+1,fsr2h
  8072  001636  0E00               	movlw	0
  8073  001638  12DE               	iorwf	postinc2,f,c
  8074  00163A  0E00               	movlw	0
  8075  00163C  12DE               	iorwf	postinc2,f,c
  8076  00163E  0E02               	movlw	2
  8077  001640  12DE               	iorwf	postinc2,f,c
  8078  001642  0E00               	movlw	0
  8079  001644  12DE               	iorwf	postinc2,f,c
  8080  001646                     i1l3492:
  8081                           
  8082                           ; BSR set to: 15
  8083                           ;CANlib.h: 573: if (RXB1SIDLbits.SID0)
  8084  001646  010F               	movlb	15	; () banked
  8085  001648  AB52               	btfss	82,5,b	;volatile
  8086  00164A  D00C               	goto	i1l3496
  8087                           
  8088                           ; BSR set to: 15
  8089                           ;CANlib.h: 574: msg->identifier |= 0x00040000;
  8090  00164C  C02A  FFD9         	movff	CANreceiveMessage@msg,fsr2l
  8091  001650  C02B  FFDA         	movff	CANreceiveMessage@msg+1,fsr2h
  8092  001654  0E00               	movlw	0
  8093  001656  12DE               	iorwf	postinc2,f,c
  8094  001658  0E00               	movlw	0
  8095  00165A  12DE               	iorwf	postinc2,f,c
  8096  00165C  0E04               	movlw	4
  8097  00165E  12DE               	iorwf	postinc2,f,c
  8098  001660  0E00               	movlw	0
  8099  001662  12DE               	iorwf	postinc2,f,c
  8100  001664                     i1l3496:
  8101                           
  8102                           ; BSR set to: 15
  8103                           ;CANlib.h: 575: if (RXB1SIDLbits.SID1)
  8104  001664  010F               	movlb	15	; () banked
  8105  001666  AD52               	btfss	82,6,b	;volatile
  8106  001668  D00C               	goto	i1l3500
  8107                           
  8108                           ; BSR set to: 15
  8109                           ;CANlib.h: 576: msg->identifier |= 0x00080000;
  8110  00166A  C02A  FFD9         	movff	CANreceiveMessage@msg,fsr2l
  8111  00166E  C02B  FFDA         	movff	CANreceiveMessage@msg+1,fsr2h
  8112  001672  0E00               	movlw	0
  8113  001674  12DE               	iorwf	postinc2,f,c
  8114  001676  0E00               	movlw	0
  8115  001678  12DE               	iorwf	postinc2,f,c
  8116  00167A  0E08               	movlw	8
  8117  00167C  12DE               	iorwf	postinc2,f,c
  8118  00167E  0E00               	movlw	0
  8119  001680  12DE               	iorwf	postinc2,f,c
  8120  001682                     i1l3500:
  8121                           
  8122                           ; BSR set to: 15
  8123                           ;CANlib.h: 577: if (RXB1SIDLbits.SID2)
  8124  001682  010F               	movlb	15	; () banked
  8125  001684  AF52               	btfss	82,7,b	;volatile
  8126  001686  D00C               	goto	i1l3504
  8127                           
  8128                           ; BSR set to: 15
  8129                           ;CANlib.h: 578: msg->identifier |= 0x00100000;
  8130  001688  C02A  FFD9         	movff	CANreceiveMessage@msg,fsr2l
  8131  00168C  C02B  FFDA         	movff	CANreceiveMessage@msg+1,fsr2h
  8132  001690  0E00               	movlw	0
  8133  001692  12DE               	iorwf	postinc2,f,c
  8134  001694  0E00               	movlw	0
  8135  001696  12DE               	iorwf	postinc2,f,c
  8136  001698  0E10               	movlw	16
  8137  00169A  12DE               	iorwf	postinc2,f,c
  8138  00169C  0E00               	movlw	0
  8139  00169E  12DE               	iorwf	postinc2,f,c
  8140  0016A0                     i1l3504:
  8141                           
  8142                           ; BSR set to: 15
  8143                           ;CANlib.h: 580: msg->identifier |= ((unsigned long) RXB1SIDH) << 21;
  8144  0016A0  CF51 F02C          	movff	3921,??_CANreceiveMessage	;volatile
  8145  0016A4  6A2D               	clrf	(??_CANreceiveMessage+1)& (0+255),c
  8146  0016A6  6A2E               	clrf	(??_CANreceiveMessage+2)& (0+255),c
  8147  0016A8  6A2F               	clrf	(??_CANreceiveMessage+3)& (0+255),c
  8148  0016AA  0E15               	movlw	21
  8149  0016AC                     i1u395_25:
  8150  0016AC  90D8               	bcf	status,0,c
  8151  0016AE  362C               	rlcf	??_CANreceiveMessage,f,c
  8152  0016B0  362D               	rlcf	??_CANreceiveMessage+1,f,c
  8153  0016B2  362E               	rlcf	??_CANreceiveMessage+2,f,c
  8154  0016B4  362F               	rlcf	??_CANreceiveMessage+3,f,c
  8155  0016B6  2EE8               	decfsz	wreg,f,c
  8156  0016B8  D7F9               	goto	i1u395_25
  8157  0016BA  C02A  FFD9         	movff	CANreceiveMessage@msg,fsr2l
  8158  0016BE  C02B  FFDA         	movff	CANreceiveMessage@msg+1,fsr2h
  8159  0016C2  502C               	movf	??_CANreceiveMessage,w,c
  8160  0016C4  12DE               	iorwf	postinc2,f,c
  8161  0016C6  502D               	movf	??_CANreceiveMessage+1,w,c
  8162  0016C8  12DE               	iorwf	postinc2,f,c
  8163  0016CA  502E               	movf	??_CANreceiveMessage+2,w,c
  8164  0016CC  12DE               	iorwf	postinc2,f,c
  8165  0016CE  502F               	movf	??_CANreceiveMessage+3,w,c
  8166  0016D0  12DE               	iorwf	postinc2,f,c
  8167  0016D2                     i1l3506:
  8168                           
  8169                           ; BSR set to: 15
  8170                           ;CANlib.h: 581: }
  8171                           ;CANlib.h: 583: RXB1CONbits.RXFUL = 0x00;
  8172  0016D2  010F               	movlb	15	; () banked
  8173  0016D4  9F50               	bcf	80,7,b	;volatile
  8174                           
  8175                           ; BSR set to: 15
  8176                           ;CANlib.h: 584: return (error);
  8177                           ;	Return value of _CANreceiveMessage is never used
  8178  0016D6  0012               	return	
  8179  0016D8                     i1l414:
  8180                           
  8181                           ; BSR set to: 15
  8182                           ;CANlib.h: 585: }
  8183                           ;CANlib.h: 587: if (RXB0CONbits.RXFUL ==0x01)
  8184  0016D8  AE60               	btfss	3936,7,c	;volatile
  8185  0016DA  0012               	return	
  8186                           
  8187                           ; BSR set to: 15
  8188                           ;CANlib.h: 588: {
  8189                           ;CANlib.h: 589: msg->identifier = 0;
  8190  0016DC  C02A  FFD9         	movff	CANreceiveMessage@msg,fsr2l
  8191  0016E0  C02B  FFDA         	movff	CANreceiveMessage@msg+1,fsr2h
  8192  0016E4  6ADE               	clrf	postinc2,c
  8193  0016E6  6ADE               	clrf	postinc2,c
  8194  0016E8  6ADE               	clrf	postinc2,c
  8195  0016EA  6ADD               	clrf	postdec2,c
  8196                           
  8197                           ; BSR set to: 15
  8198                           ;CANlib.h: 590: msg->data[0] =RXB0D0;
  8199  0016EC  EE20 F004          	lfsr	2,4
  8200  0016F0  502A               	movf	CANreceiveMessage@msg,w,c
  8201  0016F2  26D9               	addwf	fsr2l,f,c
  8202  0016F4  502B               	movf	CANreceiveMessage@msg+1,w,c
  8203  0016F6  22DA               	addwfc	fsr2h,f,c
  8204  0016F8  CF66 FFDF          	movff	3942,indf2	;volatile
  8205                           
  8206                           ; BSR set to: 15
  8207                           ;CANlib.h: 591: msg->data[1] =RXB0D1;
  8208  0016FC  EE20 F005          	lfsr	2,5
  8209  001700  502A               	movf	CANreceiveMessage@msg,w,c
  8210  001702  26D9               	addwf	fsr2l,f,c
  8211  001704  502B               	movf	CANreceiveMessage@msg+1,w,c
  8212  001706  22DA               	addwfc	fsr2h,f,c
  8213  001708  CF67 FFDF          	movff	3943,indf2	;volatile
  8214                           
  8215                           ; BSR set to: 15
  8216                           ;CANlib.h: 592: msg->data[2] =RXB0D2;
  8217  00170C  EE20 F006          	lfsr	2,6
  8218  001710  502A               	movf	CANreceiveMessage@msg,w,c
  8219  001712  26D9               	addwf	fsr2l,f,c
  8220  001714  502B               	movf	CANreceiveMessage@msg+1,w,c
  8221  001716  22DA               	addwfc	fsr2h,f,c
  8222  001718  CF68 FFDF          	movff	3944,indf2	;volatile
  8223                           
  8224                           ; BSR set to: 15
  8225                           ;CANlib.h: 593: msg->data[3] =RXB0D3;
  8226  00171C  EE20 F007          	lfsr	2,7
  8227  001720  502A               	movf	CANreceiveMessage@msg,w,c
  8228  001722  26D9               	addwf	fsr2l,f,c
  8229  001724  502B               	movf	CANreceiveMessage@msg+1,w,c
  8230  001726  22DA               	addwfc	fsr2h,f,c
  8231  001728  CF69 FFDF          	movff	3945,indf2	;volatile
  8232                           
  8233                           ; BSR set to: 15
  8234                           ;CANlib.h: 594: msg->data[4] =RXB0D4;
  8235  00172C  EE20 F008          	lfsr	2,8
  8236  001730  502A               	movf	CANreceiveMessage@msg,w,c
  8237  001732  26D9               	addwf	fsr2l,f,c
  8238  001734  502B               	movf	CANreceiveMessage@msg+1,w,c
  8239  001736  22DA               	addwfc	fsr2h,f,c
  8240  001738  CF6A FFDF          	movff	3946,indf2	;volatile
  8241                           
  8242                           ; BSR set to: 15
  8243                           ;CANlib.h: 595: msg->data[5] =RXB0D5;
  8244  00173C  EE20 F009          	lfsr	2,9
  8245  001740  502A               	movf	CANreceiveMessage@msg,w,c
  8246  001742  26D9               	addwf	fsr2l,f,c
  8247  001744  502B               	movf	CANreceiveMessage@msg+1,w,c
  8248  001746  22DA               	addwfc	fsr2h,f,c
  8249  001748  CF6B FFDF          	movff	3947,indf2	;volatile
  8250                           
  8251                           ; BSR set to: 15
  8252                           ;CANlib.h: 596: msg->data[6] =RXB0D6;
  8253  00174C  EE20 F00A          	lfsr	2,10
  8254  001750  502A               	movf	CANreceiveMessage@msg,w,c
  8255  001752  26D9               	addwf	fsr2l,f,c
  8256  001754  502B               	movf	CANreceiveMessage@msg+1,w,c
  8257  001756  22DA               	addwfc	fsr2h,f,c
  8258  001758  CF6C FFDF          	movff	3948,indf2	;volatile
  8259                           
  8260                           ; BSR set to: 15
  8261                           ;CANlib.h: 597: msg->data[7] =RXB0D7;
  8262  00175C  EE20 F00B          	lfsr	2,11
  8263  001760  502A               	movf	CANreceiveMessage@msg,w,c
  8264  001762  26D9               	addwf	fsr2l,f,c
  8265  001764  502B               	movf	CANreceiveMessage@msg+1,w,c
  8266  001766  22DA               	addwfc	fsr2h,f,c
  8267  001768  CF6D FFDF          	movff	3949,indf2	;volatile
  8268                           
  8269                           ; BSR set to: 15
  8270                           ;CANlib.h: 599: msg->RTR = RXB0DLCbits.RXRTR;
  8271  00176C  EE20 F00E          	lfsr	2,14
  8272  001770  502A               	movf	CANreceiveMessage@msg,w,c
  8273  001772  26D9               	addwf	fsr2l,f,c
  8274  001774  502B               	movf	CANreceiveMessage@msg+1,w,c
  8275  001776  22DA               	addwfc	fsr2h,f,c
  8276  001778  AC65               	btfss	3941,6,c	;volatile
  8277  00177A  D002               	goto	i1u397_20
  8278  00177C  0E01               	movlw	1
  8279  00177E  D001               	goto	i1u397_26
  8280  001780                     i1u397_20:
  8281  001780  0E00               	movlw	0
  8282  001782                     i1u397_26:
  8283  001782  6EDF               	movwf	indf2,c
  8284                           
  8285                           ; BSR set to: 15
  8286                           ;CANlib.h: 601: msg->length = RXB0DLC & 0x0F;
  8287  001784  EE20 F00D          	lfsr	2,13
  8288  001788  502A               	movf	CANreceiveMessage@msg,w,c
  8289  00178A  26D9               	addwf	fsr2l,f,c
  8290  00178C  502B               	movf	CANreceiveMessage@msg+1,w,c
  8291  00178E  22DA               	addwfc	fsr2h,f,c
  8292  001790  5065               	movf	3941,w,c	;volatile
  8293  001792  0B0F               	andlw	15
  8294  001794  6EDF               	movwf	indf2,c
  8295                           
  8296                           ; BSR set to: 15
  8297                           ;CANlib.h: 603: msg->type = RXB0SIDLbits.EXID;
  8298  001796  EE20 F00C          	lfsr	2,12
  8299  00179A  502A               	movf	CANreceiveMessage@msg,w,c
  8300  00179C  26D9               	addwf	fsr2l,f,c
  8301  00179E  502B               	movf	CANreceiveMessage@msg+1,w,c
  8302  0017A0  22DA               	addwfc	fsr2h,f,c
  8303  0017A2  A662               	btfss	3938,3,c	;volatile
  8304  0017A4  D002               	goto	i1u398_20
  8305  0017A6  0E01               	movlw	1
  8306  0017A8  D001               	goto	i1u398_26
  8307  0017AA                     i1u398_20:
  8308  0017AA  0E00               	movlw	0
  8309  0017AC                     i1u398_26:
  8310  0017AC  6EDF               	movwf	indf2,c
  8311                           
  8312                           ; BSR set to: 15
  8313                           ;CANlib.h: 605: if (RXB0SIDLbits.EXID == 0)
  8314  0017AE  B662               	btfsc	3938,3,c	;volatile
  8315  0017B0  D043               	goto	i1l3542
  8316                           
  8317                           ; BSR set to: 15
  8318                           ;CANlib.h: 606: {
  8319                           ;CANlib.h: 607: msg->identifier = ((unsigned long)RXB0SIDH)<< 3;
  8320  0017B2  CF61 F02C          	movff	3937,??_CANreceiveMessage	;volatile
  8321  0017B6  6A2D               	clrf	(??_CANreceiveMessage+1)& (0+255),c
  8322  0017B8  6A2E               	clrf	(??_CANreceiveMessage+2)& (0+255),c
  8323  0017BA  6A2F               	clrf	(??_CANreceiveMessage+3)& (0+255),c
  8324  0017BC  0E03               	movlw	3
  8325  0017BE                     i1u400_25:
  8326  0017BE  90D8               	bcf	status,0,c
  8327  0017C0  362C               	rlcf	??_CANreceiveMessage,f,c
  8328  0017C2  362D               	rlcf	??_CANreceiveMessage+1,f,c
  8329  0017C4  362E               	rlcf	??_CANreceiveMessage+2,f,c
  8330  0017C6  362F               	rlcf	??_CANreceiveMessage+3,f,c
  8331  0017C8  2EE8               	decfsz	wreg,f,c
  8332  0017CA  D7F9               	goto	i1u400_25
  8333  0017CC  C02A  FFD9         	movff	CANreceiveMessage@msg,fsr2l
  8334  0017D0  C02B  FFDA         	movff	CANreceiveMessage@msg+1,fsr2h
  8335  0017D4  C02C  FFDE         	movff	??_CANreceiveMessage,postinc2
  8336  0017D8  C02D  FFDE         	movff	??_CANreceiveMessage+1,postinc2
  8337  0017DC  C02E  FFDE         	movff	??_CANreceiveMessage+2,postinc2
  8338  0017E0  C02F  FFDE         	movff	??_CANreceiveMessage+3,postinc2
  8339                           
  8340                           ; BSR set to: 15
  8341                           ;CANlib.h: 608: tamp = (RXB0SIDL >> 5 ) & 0x07;
  8342  0017E4  3862               	swapf	3938,w,c	;volatile
  8343  0017E6  42E8               	rrncf	wreg,f,c
  8344  0017E8  0B07               	andlw	7
  8345  0017EA  0B07               	andlw	7
  8346  0017EC  6E35               	movwf	CANreceiveMessage@tamp,c
  8347                           
  8348                           ; BSR set to: 15
  8349                           ;CANlib.h: 609: msg->identifier = msg->identifier + tamp;
  8350  0017EE  C02A  FFD9         	movff	CANreceiveMessage@msg,fsr2l
  8351  0017F2  C02B  FFDA         	movff	CANreceiveMessage@msg+1,fsr2h
  8352  0017F6  CFDE F02C          	movff	postinc2,??_CANreceiveMessage
  8353  0017FA  CFDE F02D          	movff	postinc2,??_CANreceiveMessage+1
  8354  0017FE  CFDE F02E          	movff	postinc2,??_CANreceiveMessage+2
  8355  001802  CFDE F02F          	movff	postinc2,??_CANreceiveMessage+3
  8356  001806  5035               	movf	CANreceiveMessage@tamp,w,c
  8357  001808  242C               	addwf	??_CANreceiveMessage,w,c
  8358  00180A  6E30               	movwf	(??_CANreceiveMessage+4)& (0+255),c
  8359  00180C  0E00               	movlw	0
  8360  00180E  202D               	addwfc	??_CANreceiveMessage+1,w,c
  8361  001810  6E31               	movwf	(??_CANreceiveMessage+5)& (0+255),c
  8362  001812  0E00               	movlw	0
  8363  001814  202E               	addwfc	??_CANreceiveMessage+2,w,c
  8364  001816  6E32               	movwf	(??_CANreceiveMessage+6)& (0+255),c
  8365  001818  0E00               	movlw	0
  8366  00181A  202F               	addwfc	??_CANreceiveMessage+3,w,c
  8367  00181C  6E33               	movwf	(??_CANreceiveMessage+7)& (0+255),c
  8368  00181E  C02A  FFD9         	movff	CANreceiveMessage@msg,fsr2l
  8369  001822  C02B  FFDA         	movff	CANreceiveMessage@msg+1,fsr2h
  8370  001826  C030  FFDE         	movff	??_CANreceiveMessage+4,postinc2
  8371  00182A  C031  FFDE         	movff	??_CANreceiveMessage+5,postinc2
  8372  00182E  C032  FFDE         	movff	??_CANreceiveMessage+6,postinc2
  8373  001832  C033  FFDE         	movff	??_CANreceiveMessage+7,postinc2
  8374                           
  8375                           ;CANlib.h: 610: }
  8376  001836  D088               	goto	i1l3568
  8377  001838                     i1l3542:
  8378                           
  8379                           ; BSR set to: 15
  8380                           ;CANlib.h: 611: else
  8381                           ;CANlib.h: 612: {
  8382                           ;CANlib.h: 613: msg->identifier = (unsigned long) RXB0EIDL;
  8383  001838  CF64 F02C          	movff	3940,??_CANreceiveMessage	;volatile
  8384  00183C  6A2D               	clrf	(??_CANreceiveMessage+1)& (0+255),c
  8385  00183E  6A2E               	clrf	(??_CANreceiveMessage+2)& (0+255),c
  8386  001840  6A2F               	clrf	(??_CANreceiveMessage+3)& (0+255),c
  8387  001842  C02A  FFD9         	movff	CANreceiveMessage@msg,fsr2l
  8388  001846  C02B  FFDA         	movff	CANreceiveMessage@msg+1,fsr2h
  8389  00184A  C02C  FFDE         	movff	??_CANreceiveMessage,postinc2
  8390  00184E  C02D  FFDE         	movff	??_CANreceiveMessage+1,postinc2
  8391  001852  C02E  FFDE         	movff	??_CANreceiveMessage+2,postinc2
  8392  001856  C02F  FFDE         	movff	??_CANreceiveMessage+3,postinc2
  8393                           
  8394                           ; BSR set to: 15
  8395                           ;CANlib.h: 614: msg->identifier += ((unsigned long) RXB0EIDH) << 8;
  8396  00185A  CF63 F02C          	movff	3939,??_CANreceiveMessage	;volatile
  8397  00185E  6A2D               	clrf	(??_CANreceiveMessage+1)& (0+255),c
  8398  001860  6A2E               	clrf	(??_CANreceiveMessage+2)& (0+255),c
  8399  001862  6A2F               	clrf	(??_CANreceiveMessage+3)& (0+255),c
  8400  001864  C02E  F02F         	movff	??_CANreceiveMessage+2,??_CANreceiveMessage+3
  8401  001868  C02D  F02E         	movff	??_CANreceiveMessage+1,??_CANreceiveMessage+2
  8402  00186C  C02C  F02D         	movff	??_CANreceiveMessage,??_CANreceiveMessage+1
  8403  001870  6A2C               	clrf	??_CANreceiveMessage,c
  8404  001872  C02A  FFD9         	movff	CANreceiveMessage@msg,fsr2l
  8405  001876  C02B  FFDA         	movff	CANreceiveMessage@msg+1,fsr2h
  8406  00187A  502C               	movf	??_CANreceiveMessage,w,c
  8407  00187C  26DE               	addwf	postinc2,f,c
  8408  00187E  502D               	movf	??_CANreceiveMessage+1,w,c
  8409  001880  22DE               	addwfc	postinc2,f,c
  8410  001882  502E               	movf	??_CANreceiveMessage+2,w,c
  8411  001884  22DE               	addwfc	postinc2,f,c
  8412  001886  502F               	movf	??_CANreceiveMessage+3,w,c
  8413  001888  22DE               	addwfc	postinc2,f,c
  8414                           
  8415                           ; BSR set to: 15
  8416                           ;CANlib.h: 616: if (RXB0SIDLbits.EID16)
  8417  00188A  A062               	btfss	3938,0,c	;volatile
  8418  00188C  D00C               	goto	i1l3550
  8419                           
  8420                           ; BSR set to: 15
  8421                           ;CANlib.h: 617: msg->identifier |= 0x00010000;
  8422  00188E  C02A  FFD9         	movff	CANreceiveMessage@msg,fsr2l
  8423  001892  C02B  FFDA         	movff	CANreceiveMessage@msg+1,fsr2h
  8424  001896  0E00               	movlw	0
  8425  001898  12DE               	iorwf	postinc2,f,c
  8426  00189A  0E00               	movlw	0
  8427  00189C  12DE               	iorwf	postinc2,f,c
  8428  00189E  0E01               	movlw	1
  8429  0018A0  12DE               	iorwf	postinc2,f,c
  8430  0018A2  0E00               	movlw	0
  8431  0018A4  12DE               	iorwf	postinc2,f,c
  8432  0018A6                     i1l3550:
  8433                           
  8434                           ; BSR set to: 15
  8435                           ;CANlib.h: 618: if (RXB0SIDLbits.EID17)
  8436  0018A6  A262               	btfss	3938,1,c	;volatile
  8437  0018A8  D00C               	goto	i1l3554
  8438                           
  8439                           ; BSR set to: 15
  8440                           ;CANlib.h: 619: msg->identifier |= 0x00020000;
  8441  0018AA  C02A  FFD9         	movff	CANreceiveMessage@msg,fsr2l
  8442  0018AE  C02B  FFDA         	movff	CANreceiveMessage@msg+1,fsr2h
  8443  0018B2  0E00               	movlw	0
  8444  0018B4  12DE               	iorwf	postinc2,f,c
  8445  0018B6  0E00               	movlw	0
  8446  0018B8  12DE               	iorwf	postinc2,f,c
  8447  0018BA  0E02               	movlw	2
  8448  0018BC  12DE               	iorwf	postinc2,f,c
  8449  0018BE  0E00               	movlw	0
  8450  0018C0  12DE               	iorwf	postinc2,f,c
  8451  0018C2                     i1l3554:
  8452                           
  8453                           ; BSR set to: 15
  8454                           ;CANlib.h: 620: if (RXB0SIDLbits.SID0)
  8455  0018C2  AA62               	btfss	3938,5,c	;volatile
  8456  0018C4  D00C               	goto	i1l3558
  8457                           
  8458                           ; BSR set to: 15
  8459                           ;CANlib.h: 621: msg->identifier |= 0x00040000;
  8460  0018C6  C02A  FFD9         	movff	CANreceiveMessage@msg,fsr2l
  8461  0018CA  C02B  FFDA         	movff	CANreceiveMessage@msg+1,fsr2h
  8462  0018CE  0E00               	movlw	0
  8463  0018D0  12DE               	iorwf	postinc2,f,c
  8464  0018D2  0E00               	movlw	0
  8465  0018D4  12DE               	iorwf	postinc2,f,c
  8466  0018D6  0E04               	movlw	4
  8467  0018D8  12DE               	iorwf	postinc2,f,c
  8468  0018DA  0E00               	movlw	0
  8469  0018DC  12DE               	iorwf	postinc2,f,c
  8470  0018DE                     i1l3558:
  8471                           
  8472                           ; BSR set to: 15
  8473                           ;CANlib.h: 622: if (RXB0SIDLbits.SID1)
  8474  0018DE  AC62               	btfss	3938,6,c	;volatile
  8475  0018E0  D00C               	goto	i1l3562
  8476                           
  8477                           ; BSR set to: 15
  8478                           ;CANlib.h: 623: msg->identifier |= 0x00080000;
  8479  0018E2  C02A  FFD9         	movff	CANreceiveMessage@msg,fsr2l
  8480  0018E6  C02B  FFDA         	movff	CANreceiveMessage@msg+1,fsr2h
  8481  0018EA  0E00               	movlw	0
  8482  0018EC  12DE               	iorwf	postinc2,f,c
  8483  0018EE  0E00               	movlw	0
  8484  0018F0  12DE               	iorwf	postinc2,f,c
  8485  0018F2  0E08               	movlw	8
  8486  0018F4  12DE               	iorwf	postinc2,f,c
  8487  0018F6  0E00               	movlw	0
  8488  0018F8  12DE               	iorwf	postinc2,f,c
  8489  0018FA                     i1l3562:
  8490                           
  8491                           ; BSR set to: 15
  8492                           ;CANlib.h: 624: if (RXB0SIDLbits.SID2)
  8493  0018FA  AE62               	btfss	3938,7,c	;volatile
  8494  0018FC  D00C               	goto	i1l3566
  8495                           
  8496                           ; BSR set to: 15
  8497                           ;CANlib.h: 625: msg->identifier |= 0x00100000;
  8498  0018FE  C02A  FFD9         	movff	CANreceiveMessage@msg,fsr2l
  8499  001902  C02B  FFDA         	movff	CANreceiveMessage@msg+1,fsr2h
  8500  001906  0E00               	movlw	0
  8501  001908  12DE               	iorwf	postinc2,f,c
  8502  00190A  0E00               	movlw	0
  8503  00190C  12DE               	iorwf	postinc2,f,c
  8504  00190E  0E10               	movlw	16
  8505  001910  12DE               	iorwf	postinc2,f,c
  8506  001912  0E00               	movlw	0
  8507  001914  12DE               	iorwf	postinc2,f,c
  8508  001916                     i1l3566:
  8509                           
  8510                           ; BSR set to: 15
  8511                           ;CANlib.h: 627: msg->identifier |= ((unsigned long) RXB0SIDH) << 21;
  8512  001916  CF61 F02C          	movff	3937,??_CANreceiveMessage	;volatile
  8513  00191A  6A2D               	clrf	(??_CANreceiveMessage+1)& (0+255),c
  8514  00191C  6A2E               	clrf	(??_CANreceiveMessage+2)& (0+255),c
  8515  00191E  6A2F               	clrf	(??_CANreceiveMessage+3)& (0+255),c
  8516  001920  0E15               	movlw	21
  8517  001922                     i1u406_25:
  8518  001922  90D8               	bcf	status,0,c
  8519  001924  362C               	rlcf	??_CANreceiveMessage,f,c
  8520  001926  362D               	rlcf	??_CANreceiveMessage+1,f,c
  8521  001928  362E               	rlcf	??_CANreceiveMessage+2,f,c
  8522  00192A  362F               	rlcf	??_CANreceiveMessage+3,f,c
  8523  00192C  2EE8               	decfsz	wreg,f,c
  8524  00192E  D7F9               	goto	i1u406_25
  8525  001930  C02A  FFD9         	movff	CANreceiveMessage@msg,fsr2l
  8526  001934  C02B  FFDA         	movff	CANreceiveMessage@msg+1,fsr2h
  8527  001938  502C               	movf	??_CANreceiveMessage,w,c
  8528  00193A  12DE               	iorwf	postinc2,f,c
  8529  00193C  502D               	movf	??_CANreceiveMessage+1,w,c
  8530  00193E  12DE               	iorwf	postinc2,f,c
  8531  001940  502E               	movf	??_CANreceiveMessage+2,w,c
  8532  001942  12DE               	iorwf	postinc2,f,c
  8533  001944  502F               	movf	??_CANreceiveMessage+3,w,c
  8534  001946  12DE               	iorwf	postinc2,f,c
  8535  001948                     i1l3568:
  8536                           
  8537                           ; BSR set to: 15
  8538                           ;CANlib.h: 629: }
  8539                           ;CANlib.h: 630: RXB0CONbits.RXFUL = 0x00;
  8540  001948  9E60               	bcf	3936,7,c	;volatile
  8541                           
  8542                           ; BSR set to: 15
  8543                           ;CANlib.h: 632: return (error);
  8544                           ;	Return value of _CANreceiveMessage is never used
  8545  00194A  0012               	return	
  8546  00194C                     __end_of_CANreceiveMessage:
  8547                           	opt stack 0
  8548                           pclatu	equ	0xFFB
  8549                           pclath	equ	0xFFA
  8550                           tblptru	equ	0xFF8
  8551                           tblptrh	equ	0xFF7
  8552                           tblptrl	equ	0xFF6
  8553                           tablat	equ	0xFF5
  8554                           prodh	equ	0xFF4
  8555                           prodl	equ	0xFF3
  8556                           intcon	equ	0xFF2
  8557                           intcon2	equ	0xFF1
  8558                           postinc0	equ	0xFEE
  8559                           fsr0h	equ	0xFEA
  8560                           fsr0l	equ	0xFE9
  8561                           wreg	equ	0xFE8
  8562                           fsr1h	equ	0xFE2
  8563                           fsr1l	equ	0xFE1
  8564                           bsr	equ	0xFE0
  8565                           indf2	equ	0xFDF
  8566                           postinc2	equ	0xFDE
  8567                           postdec2	equ	0xFDD
  8568                           fsr2h	equ	0xFDA
  8569                           fsr2l	equ	0xFD9
  8570                           status	equ	0xFD8
  8571                           
  8572 ;; *************** function _CANisRxReady *****************
  8573 ;; Defined at:
  8574 ;;		line 1163 in file "CANlib.h"
  8575 ;; Parameters:    Size  Location     Type
  8576 ;;		None
  8577 ;; Auto vars:     Size  Location     Type
  8578 ;;		None
  8579 ;; Return value:  Size  Location     Type
  8580 ;;                  1    wreg      unsigned char 
  8581 ;; Registers used:
  8582 ;;		wreg, status,2
  8583 ;; Tracked objects:
  8584 ;;		On entry : 0/0
  8585 ;;		On exit  : 0/0
  8586 ;;		Unchanged: 0/0
  8587 ;; Data sizes:     COMRAM   BANK0   BANK1   BANK2
  8588 ;;      Params:         0       0       0       0
  8589 ;;      Locals:         1       0       0       0
  8590 ;;      Temps:          0       0       0       0
  8591 ;;      Totals:         1       0       0       0
  8592 ;;Total ram usage:        1 bytes
  8593 ;; Hardware stack levels used:    1
  8594 ;; Hardware stack levels required when called:    1
  8595 ;; This function calls:
  8596 ;;		Nothing
  8597 ;; This function is called by:
  8598 ;;		_ISR_bassa
  8599 ;; This function uses a non-reentrant model
  8600 ;;
  8601                           
  8602                           	psect	text22
  8603  0027E2                     __ptext22:
  8604                           	opt stack 0
  8605  0027E2                     _CANisRxReady:
  8606                           	opt stack 25
  8607                           
  8608                           ;CANlib.h: 1165: return (RXB0CONbits.RXFUL || RXB1CONbits.RXFUL);
  8609                           
  8610                           ; BSR set to: 15
  8611                           ;incstack = 0
  8612  0027E2  0E01               	movlw	1
  8613  0027E4  6E2A               	movwf	_CANisRxReady$3035,c
  8614  0027E6  BE60               	btfsc	3936,7,c	;volatile
  8615  0027E8  D005               	goto	i1l565
  8616  0027EA  010F               	movlb	15	; () banked
  8617  0027EC  BF50               	btfsc	80,7,b	;volatile
  8618  0027EE  D002               	goto	i1l565
  8619                           
  8620                           ; BSR set to: 15
  8621  0027F0  0E00               	movlw	0
  8622  0027F2  6E2A               	movwf	_CANisRxReady$3035,c
  8623  0027F4                     i1l565:
  8624  0027F4  502A               	movf	_CANisRxReady$3035,w,c
  8625  0027F6  0012               	return	
  8626  0027F8                     __end_of_CANisRxReady:
  8627                           	opt stack 0
  8628                           pclatu	equ	0xFFB
  8629                           pclath	equ	0xFFA
  8630                           tblptru	equ	0xFF8
  8631                           tblptrh	equ	0xFF7
  8632                           tblptrl	equ	0xFF6
  8633                           tablat	equ	0xFF5
  8634                           prodh	equ	0xFF4
  8635                           prodl	equ	0xFF3
  8636                           intcon	equ	0xFF2
  8637                           intcon2	equ	0xFF1
  8638                           postinc0	equ	0xFEE
  8639                           fsr0h	equ	0xFEA
  8640                           fsr0l	equ	0xFE9
  8641                           wreg	equ	0xFE8
  8642                           fsr1h	equ	0xFE2
  8643                           fsr1l	equ	0xFE1
  8644                           bsr	equ	0xFE0
  8645                           indf2	equ	0xFDF
  8646                           postinc2	equ	0xFDE
  8647                           postdec2	equ	0xFDD
  8648                           fsr2h	equ	0xFDA
  8649                           fsr2l	equ	0xFD9
  8650                           status	equ	0xFD8
  8651                           
  8652 ;; *************** function _ISR_alta *****************
  8653 ;; Defined at:
  8654 ;;		line 85 in file "motore.c"
  8655 ;; Parameters:    Size  Location     Type
  8656 ;;		None
  8657 ;; Auto vars:     Size  Location     Type
  8658 ;;		None
  8659 ;; Return value:  Size  Location     Type
  8660 ;;		None               void
  8661 ;; Registers used:
  8662 ;;		None
  8663 ;; Tracked objects:
  8664 ;;		On entry : 0/0
  8665 ;;		On exit  : 0/0
  8666 ;;		Unchanged: 0/0
  8667 ;; Data sizes:     COMRAM   BANK0   BANK1   BANK2
  8668 ;;      Params:         0       0       0       0
  8669 ;;      Locals:         0       0       0       0
  8670 ;;      Temps:          0      14       0       0
  8671 ;;      Totals:         0      14       0       0
  8672 ;;Total ram usage:       14 bytes
  8673 ;; Hardware stack levels used:    1
  8674 ;; This function calls:
  8675 ;;		Nothing
  8676 ;; This function is called by:
  8677 ;;		Interrupt level 2
  8678 ;; This function uses a non-reentrant model
  8679 ;;
  8680                           
  8681                           	psect	intcode
  8682  000008                     __pintcode:
  8683                           	opt stack 0
  8684  000008                     _ISR_alta:
  8685                           	opt stack 25
  8686                           
  8687                           ;incstack = 0
  8688  000008  8249               	bsf	btemp,1,c	;set compiler interrupt flag (level 2)
  8689  00000A  CFFA F060          	movff	pclath,??_ISR_alta
  8690  00000E  CFFB F061          	movff	pclatu,??_ISR_alta+1
  8691  000012  EDD2  F012         	call	int_func,f	;refresh shadow registers
  8692                           pclatu	equ	0xFFB
  8693                           pclath	equ	0xFFA
  8694                           tblptru	equ	0xFF8
  8695                           tblptrh	equ	0xFF7
  8696                           tblptrl	equ	0xFF6
  8697                           tablat	equ	0xFF5
  8698                           prodh	equ	0xFF4
  8699                           prodl	equ	0xFF3
  8700                           intcon	equ	0xFF2
  8701                           intcon2	equ	0xFF1
  8702                           postinc0	equ	0xFEE
  8703                           fsr0h	equ	0xFEA
  8704                           fsr0l	equ	0xFE9
  8705                           wreg	equ	0xFE8
  8706                           fsr1h	equ	0xFE2
  8707                           fsr1l	equ	0xFE1
  8708                           bsr	equ	0xFE0
  8709                           indf2	equ	0xFDF
  8710                           postinc2	equ	0xFDE
  8711                           postdec2	equ	0xFDD
  8712                           fsr2h	equ	0xFDA
  8713                           fsr2l	equ	0xFD9
  8714                           status	equ	0xFD8
  8715                           
  8716                           	psect	intcode_body
  8717  0025A4                     __pintcode_body:
  8718                           	opt stack 25
  8719  0025A4                     int_func:
  8720                           	opt stack 25
  8721  0025A4  0006               	pop		; remove dummy address from shadow register refresh
  8722  0025A6  CFE9 F062          	movff	fsr0l,??_ISR_alta+2
  8723  0025AA  CFEA F063          	movff	fsr0h,??_ISR_alta+3
  8724  0025AE  CFE1 F064          	movff	fsr1l,??_ISR_alta+4
  8725  0025B2  CFE2 F065          	movff	fsr1h,??_ISR_alta+5
  8726  0025B6  CFD9 F066          	movff	fsr2l,??_ISR_alta+6
  8727  0025BA  CFDA F067          	movff	fsr2h,??_ISR_alta+7
  8728  0025BE  CFF3 F068          	movff	prodl,??_ISR_alta+8
  8729  0025C2  CFF4 F069          	movff	prodh,??_ISR_alta+9
  8730  0025C6  CFF6 F06A          	movff	tblptrl,??_ISR_alta+10
  8731  0025CA  CFF7 F06B          	movff	tblptrh,??_ISR_alta+11
  8732  0025CE  CFF8 F06C          	movff	tblptru,??_ISR_alta+12
  8733  0025D2  CFF5 F06D          	movff	tablat,??_ISR_alta+13
  8734  0025D6  C06D  FFF5         	movff	??_ISR_alta+13,tablat
  8735  0025DA  C06C  FFF8         	movff	??_ISR_alta+12,tblptru
  8736  0025DE  C06B  FFF7         	movff	??_ISR_alta+11,tblptrh
  8737  0025E2  C06A  FFF6         	movff	??_ISR_alta+10,tblptrl
  8738  0025E6  C069  FFF4         	movff	??_ISR_alta+9,prodh
  8739  0025EA  C068  FFF3         	movff	??_ISR_alta+8,prodl
  8740  0025EE  C067  FFDA         	movff	??_ISR_alta+7,fsr2h
  8741  0025F2  C066  FFD9         	movff	??_ISR_alta+6,fsr2l
  8742  0025F6  C065  FFE2         	movff	??_ISR_alta+5,fsr1h
  8743  0025FA  C064  FFE1         	movff	??_ISR_alta+4,fsr1l
  8744  0025FE  C063  FFEA         	movff	??_ISR_alta+3,fsr0h
  8745  002602  C062  FFE9         	movff	??_ISR_alta+2,fsr0l
  8746  002606  C061  FFFB         	movff	??_ISR_alta+1,pclatu
  8747  00260A  C060  FFFA         	movff	??_ISR_alta,pclath
  8748  00260E  9249               	bcf	btemp,1,c	;clear compiler interrupt flag (level 2)
  8749  002610  0011               	retfie		f
  8750  002612                     __end_of_ISR_alta:
  8751                           	opt stack 0
  8752  0000                     pclatu	equ	0xFFB
  8753                           pclath	equ	0xFFA
  8754                           tblptru	equ	0xFF8
  8755                           tblptrh	equ	0xFF7
  8756                           tblptrl	equ	0xFF6
  8757                           tablat	equ	0xFF5
  8758                           prodh	equ	0xFF4
  8759                           prodl	equ	0xFF3
  8760                           intcon	equ	0xFF2
  8761                           intcon2	equ	0xFF1
  8762                           postinc0	equ	0xFEE
  8763                           fsr0h	equ	0xFEA
  8764                           fsr0l	equ	0xFE9
  8765                           wreg	equ	0xFE8
  8766                           fsr1h	equ	0xFE2
  8767                           fsr1l	equ	0xFE1
  8768                           bsr	equ	0xFE0
  8769                           indf2	equ	0xFDF
  8770                           postinc2	equ	0xFDE
  8771                           postdec2	equ	0xFDD
  8772                           fsr2h	equ	0xFDA
  8773                           fsr2l	equ	0xFD9
  8774                           status	equ	0xFD8
  8775                           pclatu	equ	0xFFB
  8776                           pclath	equ	0xFFA
  8777                           tblptru	equ	0xFF8
  8778                           tblptrh	equ	0xFF7
  8779                           tblptrl	equ	0xFF6
  8780                           tablat	equ	0xFF5
  8781                           prodh	equ	0xFF4
  8782                           prodl	equ	0xFF3
  8783                           intcon	equ	0xFF2
  8784                           intcon2	equ	0xFF1
  8785                           postinc0	equ	0xFEE
  8786                           fsr0h	equ	0xFEA
  8787                           fsr0l	equ	0xFE9
  8788                           wreg	equ	0xFE8
  8789                           fsr1h	equ	0xFE2
  8790                           fsr1l	equ	0xFE1
  8791                           bsr	equ	0xFE0
  8792                           indf2	equ	0xFDF
  8793                           postinc2	equ	0xFDE
  8794                           postdec2	equ	0xFDD
  8795                           fsr2h	equ	0xFDA
  8796                           fsr2l	equ	0xFD9
  8797                           status	equ	0xFD8
  8798                           
  8799                           	psect	param0
  8800  0000                     pclatu	equ	0xFFB
  8801                           pclath	equ	0xFFA
  8802                           tblptru	equ	0xFF8
  8803                           tblptrh	equ	0xFF7
  8804                           tblptrl	equ	0xFF6
  8805                           tablat	equ	0xFF5
  8806                           prodh	equ	0xFF4
  8807                           prodl	equ	0xFF3
  8808                           intcon	equ	0xFF2
  8809                           intcon2	equ	0xFF1
  8810                           postinc0	equ	0xFEE
  8811                           fsr0h	equ	0xFEA
  8812                           fsr0l	equ	0xFE9
  8813                           wreg	equ	0xFE8
  8814                           fsr1h	equ	0xFE2
  8815                           fsr1l	equ	0xFE1
  8816                           bsr	equ	0xFE0
  8817                           indf2	equ	0xFDF
  8818                           postinc2	equ	0xFDE
  8819                           postdec2	equ	0xFDD
  8820                           fsr2h	equ	0xFDA
  8821                           fsr2l	equ	0xFD9
  8822                           status	equ	0xFD8
  8823                           
  8824                           	psect	temp
  8825  000049                     btemp:
  8826                           	opt stack 0
  8827  000049                     	ds	1
  8828  0000                     int$flags	set	btemp
  8829                           pclatu	equ	0xFFB
  8830                           pclath	equ	0xFFA
  8831                           tblptru	equ	0xFF8
  8832                           tblptrh	equ	0xFF7
  8833                           tblptrl	equ	0xFF6
  8834                           tablat	equ	0xFF5
  8835                           prodh	equ	0xFF4
  8836                           prodl	equ	0xFF3
  8837                           intcon	equ	0xFF2
  8838                           intcon2	equ	0xFF1
  8839                           postinc0	equ	0xFEE
  8840                           fsr0h	equ	0xFEA
  8841                           fsr0l	equ	0xFE9
  8842                           wreg	equ	0xFE8
  8843                           fsr1h	equ	0xFE2
  8844                           fsr1l	equ	0xFE1
  8845                           bsr	equ	0xFE0
  8846                           indf2	equ	0xFDF
  8847                           postinc2	equ	0xFDE
  8848                           postdec2	equ	0xFDD
  8849                           fsr2h	equ	0xFDA
  8850                           fsr2l	equ	0xFD9
  8851                           status	equ	0xFD8


Data Sizes:
    Strings     0
    Constant    0
    Data        2
    BSS         84
    Persistent  0
    Stack       0

Auto Spaces:
    Space          Size  Autos    Used
    COMRAM           94     29      72
    BANK0           160     49      94
    BANK1           256      0       0
    BANK2           256      0       0

Pointer List with Targets:

    CANreceiveMessage@msg	PTR struct . size(2) Largest target is 15
		 -> msg(COMRAM[15]), 

    CANsendMessage@data	PTR unsigned char  size(2) Largest target is 8
		 -> data_array(BANK0[8]), NULL(NULL[0]), 


Critical Paths under _main in COMRAM

    None.

Critical Paths under _ISR_alta in COMRAM

    None.

Critical Paths under _ISR_bassa in COMRAM

    _ISR_bassa->_CANreceiveMessage

Critical Paths under _main in BANK0

    _send_data->_CANsendMessage
    _delay_ms->___wmul
    _configurazione_iniziale->_CANInitialize
    _CANInitialize->_CANSetFilter
    _CANInitialize->_CANSetMask
    _battery_measure->_CANsendMessage
    ___wmul->___awdiv

Critical Paths under _ISR_alta in BANK0

    None.

Critical Paths under _ISR_bassa in BANK0

    None.

Critical Paths under _main in BANK1

    None.

Critical Paths under _ISR_alta in BANK1

    None.

Critical Paths under _ISR_bassa in BANK1

    None.

Critical Paths under _main in BANK2

    None.

Critical Paths under _ISR_alta in BANK2

    None.

Critical Paths under _ISR_bassa in BANK2

    None.

Call Graph Tables:

 ---------------------------------------------------------------------------------
 (Depth) Function   	        Calls       Base Space   Used Autos Params    Refs
 ---------------------------------------------------------------------------------
 (0) _main                                                 9     9      0   26740
                                             40 BANK0      9     9      0
                   _CANisRXwarningON
                   _CANisTXwarningON
                     _CANsendMessage
                          _OpenEPWM1
                         _OpenTimer2
                         _SetDCEPWM1
                     _SetOutputEPWM1
                            ___awdiv
                             ___wmul
                                _abs
                    _battery_measure
            _configurazione_iniziale
                           _delay_ms
                          _send_data
 ---------------------------------------------------------------------------------
 (1) _send_data                                            0     0      0    4326
                       _CANisTxReady
                     _CANsendMessage
 ---------------------------------------------------------------------------------
 (1) _delay_ms                                             2     0      2    1110
                                             28 BANK0      2     0      2
                             ___wmul
 ---------------------------------------------------------------------------------
 (1) _configurazione_iniziale                              0     0      0    8212
                      _CANInitialize
 ---------------------------------------------------------------------------------
 (2) _CANInitialize                                       12     7      5    8212
                                             28 BANK0     12     7      5
                   _CANOperationMode
                       _CANSetFilter
                         _CANSetMask
 ---------------------------------------------------------------------------------
 (3) _CANSetMask                                          14     9      5    1788
                                             14 BANK0     14     9      5
 ---------------------------------------------------------------------------------
 (3) _CANSetFilter                                        14     9      5    5364
                                             14 BANK0     14     9      5
 ---------------------------------------------------------------------------------
 (3) _CANOperationMode                                     1     1      0      62
                                             14 BANK0      1     1      0
 ---------------------------------------------------------------------------------
 (1) _battery_measure                                      0     0      0    6081
                       _CANisTxReady
                     _CANsendMessage
                            ___awdiv
                             ___wmul
 ---------------------------------------------------------------------------------
 (2) ___wmul                                               6     2      4     694
                                             22 BANK0      6     2      4
                            ___awdiv (ARG)
 ---------------------------------------------------------------------------------
 (2) ___awdiv                                              8     4      4    1061
                                             14 BANK0      8     4      4
 ---------------------------------------------------------------------------------
 (2) _CANsendMessage                                      16     8      8    4289
                                             14 BANK0     16     8      8
 ---------------------------------------------------------------------------------
 (2) _CANisTxReady                                         1     1      0      37
                                             14 BANK0      1     1      0
 ---------------------------------------------------------------------------------
 (1) _abs                                                  4     2      2     170
                                             14 BANK0      4     2      2
 ---------------------------------------------------------------------------------
 (1) _SetOutputEPWM1                                       2     1      1     340
                                             14 BANK0      2     1      1
 ---------------------------------------------------------------------------------
 (1) _SetDCEPWM1                                           6     4      2     330
                                             14 BANK0      6     4      2
 ---------------------------------------------------------------------------------
 (1) _OpenTimer2                                           1     1      0      62
                                             14 BANK0      1     1      0
 ---------------------------------------------------------------------------------
 (1) _OpenEPWM1                                            1     1      0      31
                                             14 BANK0      1     1      0
 ---------------------------------------------------------------------------------
 (1) _CANisTXwarningON                                     0     0      0       0
 ---------------------------------------------------------------------------------
 (1) _CANisRXwarningON                                     0     0      0       0
 ---------------------------------------------------------------------------------
 Estimated maximum stack depth 3
 ---------------------------------------------------------------------------------
 (Depth) Function   	        Calls       Base Space   Used Autos Params    Refs
 ---------------------------------------------------------------------------------
 (4) _ISR_bassa                                           17    17      0    1161
                                             12 COMRAM    17    17      0
                       _CANisRxReady
                  _CANreceiveMessage
 ---------------------------------------------------------------------------------
 (5) _CANreceiveMessage                                   12    10      2    1137
                                              0 COMRAM    12    10      2
 ---------------------------------------------------------------------------------
 (5) _CANisRxReady                                         1     1      0      24
                                              0 COMRAM     1     1      0
 ---------------------------------------------------------------------------------
 Estimated maximum stack depth 5
 ---------------------------------------------------------------------------------
 (Depth) Function   	        Calls       Base Space   Used Autos Params    Refs
 ---------------------------------------------------------------------------------
 (6) _ISR_alta                                            14    14      0       0
                                              0 BANK0     14    14      0
 ---------------------------------------------------------------------------------
 Estimated maximum stack depth 6
 ---------------------------------------------------------------------------------

 Call Graph Graphs:

 _main (ROOT)
   _CANisRXwarningON
   _CANisTXwarningON
   _CANsendMessage
   _OpenEPWM1
   _OpenTimer2
   _SetDCEPWM1
   _SetOutputEPWM1
   ___awdiv
   ___wmul
     ___awdiv (ARG)
   _abs
   _battery_measure
     _CANisTxReady
     _CANsendMessage
     ___awdiv
     ___wmul
       ___awdiv (ARG)
   _configurazione_iniziale
     _CANInitialize
       _CANOperationMode
       _CANSetFilter
       _CANSetMask
   _delay_ms
     ___wmul
       ___awdiv (ARG)
   _send_data
     _CANisTxReady
     _CANsendMessage

 _ISR_bassa (ROOT)
   _CANisRxReady
   _CANreceiveMessage

 _ISR_alta (ROOT)

 Address spaces:
Name               Size   Autos  Total    Cost      Usage
BIGRAM             2FF      0       0      10        0.0%
EEDATA             100      0       0       0        0.0%
BITBANK2           100      0       0       7        0.0%
BANK2              100      0       0       8        0.0%
BITBANK1           100      0       0       5        0.0%
BANK1              100      0       0       6        0.0%
BITBANK0            A0      0       0       3        0.0%
BANK0               A0     31      5E       4       58.8%
BITCOMRAM           5E      0       2       0        2.1%
COMRAM              5E     1D      48       1       76.6%
BITSFR_3             0      0       0      40        0.0%
SFR_3                0      0       0      40        0.0%
BITSFR_2             0      0       0      40        0.0%
SFR_2                0      0       0      40        0.0%
BITSFR_1             0      0       0      40        0.0%
SFR_1                0      0       0      40        0.0%
BITSFR               0      0       0      40        0.0%
SFR                  0      0       0      40        0.0%
STACK                0      0       0       2        0.0%
NULL                 0      0       0       0        0.0%
ABS                  0      0      A6       9        0.0%
DATA                 0      0      A6      11        0.0%
CODE                 0      0       0       0        0.0%


Microchip Technology PIC18 Macro Assembler V1.35 build -356382666 
Symbol Table                                                                                   Sun Jan 24 15:59:08 2016

              ??_CANisTXwarningON 006E              __end_of_CANSetFilter 0CB4  
                    ___awdiv@sign 0073                                _id 000D  
                              bsr 000FE0               ___wmul@multiplicand 0078  
                     __CFG_BORV$3 000000                    _SetOutputEPWM1 2612  
                    __CFG_CP0$OFF 000000                      __CFG_CP1$OFF 000000  
                     __CFG_OSC$HS 000000              _previousTimeCounter1 009D  
            _previousTimeCounter2 00A1                               l400 125E  
                             l401 1268                               l402 1272  
                             l403 127C                               l500 09F0  
                             l501 09F4                               l406 138C  
                             l502 0A00                               l407 1390  
                             l511 0B0C                               l503 0A04  
                             l408 139C                               l512 0B10  
                             l504 0A10                               l440 1FFA  
                             l513 0B1C                               l505 0A14  
                             l441 1FFE                               l370 0DC6  
                             l530 0C68                               l522 0C28  
                             l514 0B20                               l506 0A20  
                             l450 2106                               l442 200A  
                             l362 223A                               l371 0D56  
                             l523 0C2C                               l515 0B2C  
                             l507 0A24                               l451 2112  
                             l443 200E                               l363 2244  
                             l372 0D60                               l524 0C38  
                             l516 0B30                               l508 0A30  
                             l452 2116                               l444 201A  
                             l436 1FDA                               l373 0D6A  
                             l525 0C3C                               l517 0B3C  
                             l453 2122                               l437 1FDE  
                             l382 11BC                               l374 0D74  
                             l526 0C48                               l518 0B40  
                             l470 06B2                               l454 2126  
                             l438 1FEA                               l710 25A0  
                             l383 0F4E                               l367 0F38  
                             l527 0C4C                               l519 0B4C  
                             l471 06BE                               l455 2132  
                             l447 20F2                               l439 1FEE  
                             l560 27A4                               l392 1108  
                             l384 0F52                               l368 0CCA  
                             l528 0C58                               l480 07C8  
                             l472 06C2                               l448 20F6  
                             l393 110C                               l385 104A  
                             l377 0E84                               l369 0CCE  
                             l529 0C5C                               l481 07CC  
                             l473 06CE                               l449 2102  
                             l394 1118                               l386 0FDA  
                             l378 0E88                               l722 252E  
                             l490 08D8                               l482 07D8  
                             l474 06D2                               l706 257A  
                             l387 0FE4                               l379 0E94  
                             l715 249E                               l491 08E4  
                             l483 07DC                               l475 06DE  
                             l467 069E                               l820 277C  
                             l388 0FEE                               l492 08E8  
                             l484 07E8                               l468 06A2  
                             l708 2576                               l397 11D2  
                             l389 0FF8                               l493 08F4  
                             l485 07EC                               l469 06AE  
                             l573 2716                               l398 11D6  
                             l494 08F8                               l486 07F8  
                             l478 07B8                               l399 12CE  
                             l495 0904                               l479 07BC  
                             l496 0908                               l497 0914  
                             l489 08D4                               l681 1C42  
                             l754 265A                               l682 1C34  
                             l683 1BF4                               l768 27C6  
                             l769 27C8                               l689 1C94  
                    __CFG_CPB$OFF 000000                               _PR2 000FCB  
                    __CFG_CPD$OFF 000000                               _id1 0011  
                             _abs 275A                               _dir 00A9  
                             _msg 001B                               wreg 000FE8  
                    __CFG_LVP$OFF 000000                      __CFG_WDT$OFF 000000  
                            ?_abs 006E                              l4020 201E  
                            l4200 0728                              l4112 03DE  
                            l4130 0498                              l4026 2064  
                            l5002 1D46                              l4052 2136  
                            l4302 0A7A                              l5006 1D56  
                            l5008 1D66                              l4330 0B50  
                            l4234 0842                              l4410 2248  
                            l4228 07FC                              l4148 0552  
                            l4076 026C                              l4262 0918  
                            l4166 060C                              l4094 0324  
                            l4414 2250                              l4336 0B96  
                            l4416 2294                              l4408 2232  
                            l4530 1002                              l4194 06E2  
                            l4364 0C6C                              l4268 095E  
                            l4606 1286                              l4550 10FC  
                            l4454 0D7E                              l4710 23F8  
                            l4702 23D6                              l4632 13A0  
                            l4480 0E98                              l4296 0A34  
                            l4626 1380                              l4474 0E78  
                            l4706 23E4                              l4556 111C  
                            l4724 2708                              l3960 27D4  
                            l4690 2394                              l4844 2638  
                            l4692 23A0                              l4684 2376  
                            l4916 19A8                              l4694 23A6  
                            l4678 2360                              l4934 19E4  
                            l4926 19C8                              l4848 2648  
                            l4882 24F4                              l3994 1F4E  
                            l3978 1E98                              l4938 19F2  
                            l4970 1C62                              l4868 256A  
                            l4980 1C82                              l4974 1C6A  
                            l4992 1D2E                              l4984 1C96  
                            l4976 1C6E                              l4968 1C52  
                            _LATA 000F89                              _LATB 000F8A  
                            _LATC 000F8B                              _LATD 000F8C  
                            _LATE 000F8D                              u5100 04CE  
                            u5020 035A                              u5105 04C2  
                            u5025 034E                              u5115 052E  
                            u5035 03BA                              u6020 12A6  
                            u5140 0588                              u5060 0414  
                            u6030 12F2                              u5310 081C  
                            u5230 0702                              u6025 129A  
                            u5145 057C                              u5065 0408  
                            u6035 12E6                              u5315 0810  
                            u5235 06F6                              u5155 05E8  
                            u5075 0474                              u4700 1E14  
                            u6045 1352                              u6310 2588  
                            u6160 2812                              u4705 1E08  
                            u6170 281E                              u6410 1A56  
                            u4715 1E74                              u4740 1ECA  
                            u6325 258A                              u5630 0C8C  
                            u5550 0B70                              u5470 0A54  
                            u5390 0938                              u4910 2156  
                            u4830 203E                              u6430 1AF6  
                            u6255 266E                              u6440 1B94  
                            u4745 1EBE                              u6530 1CFA  
                            u6450 1BD6                              u5635 0C80  
                            u5555 0B64                              u5475 0A48  
                            u5395 092C                              u4915 214A  
                            u4835 2032                              u4755 1F2A  
                            u5900 106E                              u4940 01E8  
                            u6607 270A                              u5760 0D9E  
                            u5905 1062                              u4945 01DC  
                            u5770 0DEA                              u5915 10CE  
                            u4955 0248                              u4980 02A0  
                            u5765 0D92                              u6590 1DCA  
                            u5775 0DDE                              u5785 0E4A  
                            u4985 0294                              u5890 1022  
                            u4995 0300                              u5895 1016  
                            _TMR2 000FCC               __size_of_CANSetMask 039E  
                            abs@a 006E                              _main 194C  
                            fsr0h 000FEA                              fsr1h 000FE2  
                            fsr0l 000FE9                              fsr2h 000FDA  
                            fsr1l 000FE1                              indf2 000FDF  
                            fsr2l 000FD9                              btemp 0049  
                            pclat 000FFA                              prodh 000FF4  
                            prodl 000FF3                              start 01AA  
                   __CFG_IESO$OFF 000000                     __CFG_MCLRE$ON 000000  
                    ___param_bank 000000                  _CANOperationMode 27CC  
          __end_of_SetOutputEPWM1 2664                             ??_abs 0070  
      __size_of_CANreceiveMessage 050C                             ?_main 002A  
                 __end_of___awdiv 2402                   ___awdiv@divisor 0070  
                           _T2CON 000FCA                             _T3CON 000FB1  
                           i1l414 16D8                             i1l565 27F4  
                           i1l670 0162                             i1l656 0148  
                           i1l665 0124                             i1l666 0144  
                           i1l658 00A4                             i1l667 0128  
                           i1l668 012C                   ___awdiv@counter 0072  
                           _TMR3H 000FB3                             _TMR3L 000FB2  
                           _PORTD 000F83                 _CANisRxReady$3035 002A  
                           _TRISA 000F92                             _TRISB 000F93  
                           _TRISC 000F94                             _TRISD 000F95  
                           _TRISE 000F96                     __CFG_PWRT$OFF 000000  
                   __CFG_WRT0$OFF 000000                     __CFG_WRT1$OFF 000000  
              __size_of_ISR_bassa 0192                    __CFG_EBTR0$OFF 000000  
                  __CFG_FCMEN$OFF 000000                    __CFG_EBTR1$OFF 000000  
              CANInitialize@flags 0080                  __end_of_ISR_alta 2612  
                   __CFG_WRTB$OFF 000000                     __CFG_WRTC$OFF 000000  
                   __CFG_WRTD$OFF 000000                    __CFG_EBTRB$OFF 000000  
                           _vBatt 00AD                    __pbitbssCOMRAM 0238  
            __end_of_CANisRxReady 27F8                             tablat 000FF5  
            __end_of_CANisTxReady 27AA                             status 000FD8  
                  __CFG_PBADEN$ON 000000                        _SetDCEPWM1 2664  
                 __initialization 26A8          __size_of_battery_measure 0094  
                    __end_of_main 1DE0                   ?_SetOutputEPWM1 006E  
                          ??_main 0088                     __activetblptr 000002  
               _CANisTxReady$3033 006E                     _counter_array 0001  
                          _CANCON 000F6F                            _ADRESH 000FC4  
                ___awdiv@dividend 006E                   __CFG_BBSIZ$1024 000000  
                          i1l3500 1682                            i1l3504 16A0  
                          i1l3506 16D2                            i1l3550 18A6  
                          i1l3542 1838                            i1l3480 15B8  
                          i1l3562 18FA                            i1l3554 18C2  
                          i1l3492 1646                            i1l3566 1916  
                          i1l3558 18DE                            i1l3568 1948  
                          i1l3496 1664                            i1l3488 1628  
                          i1l3782 00E8                            i1l3792 0114  
                          i1l3768 0066                            i1l3778 00BE  
                      _OpenTimer2 27AA                            i1l3788 00FC  
                          i1l3798 0130                            _RXB0D0 000F66  
                          _RXB0D1 000F67                            _RXB0D2 000F68  
                          _RXB0D3 000F69                            _RXB0D4 000F6A  
                          _RXB1D0 000F56                            _RXB0D5 000F6B  
                          _RXB1D1 000F57                            _RXB0D6 000F6C  
                          _RXB1D2 000F58                            _RXB0D7 000F6D  
                          _RXB1D3 000F59                            _RXB1D4 000F5A  
                          _RXB1D5 000F5B                            _RXB1D6 000F5C  
                          _RXB1D7 000F5D                            _TXB0D0 000F46  
                          _TXB0D1 000F47                            _TXB0D2 000F48  
                          _TXB0D3 000F49                            _TXB1D0 000F36  
                          _TXB0D4 000F4A                            _TXB1D1 000F37  
                          _TXB0D5 000F4B                            _TXB1D2 000F38  
                          _TXB0D6 000F4C                            _TXB1D3 000F39  
                          _TXB0D7 000F4D                            _TXB2D0 000F26  
                          _TXB1D4 000F3A                            _TXB2D1 000F27  
                          _TXB1D5 000F3B                            _TXB2D2 000F28  
                          _TXB1D6 000F3C                            _TXB2D3 000F29  
                          _TXB1D7 000F3D                            _TXB2D4 000F2A  
                          _TXB2D5 000F2B                            _TXB2D6 000F2C  
                          _TXB2D7 000F2D                CANsendMessage@data 0072  
              CANsendMessage@tamp 007A                  __end_of_delay_ms 2724  
           __size_of_CANSetFilter 0B06                    __CFG_XINST$OFF 000000  
              __size_of_OpenEPWM1 0012                 __end_of_ISR_bassa 01AA  
                          ___wmul 2724                         ??___awdiv 0072  
                  __CFG_STVREN$ON 000000                      ??_CANSetMask 0073  
                          _errore 00AB                  OpenTimer2@config 006E  
                          clear_0 26AE                            clear_1 26BE  
                ___awdiv@quotient 0074          ?_configurazione_iniziale 002A  
                 __CFG_BOREN$BOHW 000000                            tblptrh 000FF7  
                          tblptrl 000FF6                            tblptru 000FF8  
                    _CANSetFilter 01AE                        __accesstop 0060  
         __end_of__initialization 26DC                __end_of_CANSetMask 217E  
                   ___rparam_used 000000         __size_of_CANisRXwarningON 000C  
                     ?_SetDCEPWM1 006E                    __pcstackCOMRAM 002A  
                    __pidataBANK0 2822                         ?_ISR_alta 002A  
               ??_battery_measure 007E             CANSetFilter@numBuffer 0077  
                 OpenEPWM1@period 006E         __size_of_CANisTXwarningON 000C  
           __size_of_CANisRxReady 0016             __size_of_CANisTxReady 0024  
               __end_of_OpenEPWM1 280A          __end_of_CANOperationMode 27E2  
                      __pbssBANK0 0091                       ?_OpenTimer2 002A  
                      _data_array 00B4           __size_of_CANsendMessage 078C  
                         ?___wmul 0076                        ??_ISR_alta 0060  
              __size_of_send_data 0074                      _CANisRxReady 27E2  
                         _ECCPR1L 000FBB                           _CANSTAT 000F6E  
                    _CANisTxReady 2786                           _BRGCON1 000F70  
                         _BRGCON2 000F71                           _BRGCON3 000F72  
          __size_of_CANInitialize 01C6                         ?_delay_ms 007C  
                         _RXB0DLC 000F65                           _RXB1DLC 000F55  
                         _RXB0CON 000F60               __size_of_SetDCEPWM1 0044  
                         _RXB1CON 000F50                           _TXB0DLC 000F45  
                         _TXB1DLC 000F35                           _TXB2DLC 000F25  
             CANsendMessage@flags 0075          SetOutputEPWM1@outputmode 006E  
                      _correzione 00A7                  ??_SetOutputEPWM1 006F  
                         __Hparam 0000                        _left_speed 00B0  
                         __Lparam 0000                  delay_ms@value_ms 007C  
                         ___awdiv 2344                   __size_of___wmul 0036  
            CANInitialize@propSeg 0085                           __pcinit 26A8  
                         __ramtop 0300               __size_of_OpenTimer2 0022  
                         __ptext0 194C                           __ptext1 2530  
                         __ptext2 26EA                           __ptext3 2402  
                         __ptext4 217E                           __ptext5 1DE0  
                         __ptext6 01AE                           __ptext7 27CC  
                         __ptext8 249C                           __ptext9 2724  
                         _counter 0009                         _T2CONbits 000FCA  
                    __size_of_abs 002C                        _duty_cycle 0019  
                      ??_delay_ms 007E            CANreceiveMessage@error 0034  
                  __pintcode_body 25A4              end_of_initialization 26DC  
               __end_of_send_data 25A4                     __Lmediumconst 0000  
                         int_func 25A4                  _CANisRXwarningON 2816  
                   _CANInitialize 217E                           postdec2 000FDD  
                         postinc0 000FEE                           postinc2 000FDE  
                       _ISR_bassa 0018                         _PORTAbits 000F80  
                  CANSetMask@mask 006E                         _PORTCbits 000F82  
                  CANSetMask@tamp 0078                    _centralina_abs 0239  
                  CANSetMask@type 0072                  _CANisTXwarningON 280A  
                       _TRISDbits 000F95  __size_of_configurazione_iniziale 009A  
             _previousTimeCounter 0099           _clock_counter_reference 00A5  
                  _CANsendMessage 0CB4                  CANInitialize@BRP 007F  
                CANInitialize@SJW 007E                    ?_CANInitialize 007C  
                      main@period 0090                      ??_SetDCEPWM1 0070  
                 _battery_measure 249C                        ?_ISR_bassa 002A  
                  __end_of___wmul 275A                 __size_of_ISR_alta 260A  
             start_initialization 26A8                       __end_of_abs 2786  
              __end_of_SetDCEPWM1 26A8               CANSetMask@numBuffer 0077  
          __end_of_CANsendMessage 1440                 ?_CANOperationMode 002A  
                    ??_OpenTimer2 006E                         _OpenEPWM1 27F8  
              ??_CANOperationMode 006E        CANInitialize@FilterConfig1 0086  
      CANInitialize@FilterConfig2 0087                          ??___wmul 007A  
                     __pdataBANK0 00BC                  __CFG_LPT1OSC$OFF 000000  
              __end_of_OpenTimer2 27CC            CANInitialize@phaseSeg1 007C  
          CANInitialize@phaseSeg2 007D                       __pbssCOMRAM 0001  
                   __pcstackBANK0 0060                       _BRGCON2bits 000F71  
                     _BRGCON3bits 000F72               SetDCEPWM1@dutycycle 006E  
               __size_of_delay_ms 003A                   ?_CANsendMessage 006E  
                      ?_OpenEPWM1 002A           __end_of_battery_measure 2530  
                 ??_CANInitialize 0081                         _can_retry 0238  
                    _currentSpeed 00BC                CANSetFilter@filter 006E  
                       __pintcode 0008                          ?___awdiv 006E  
                     ??_ISR_bassa 0036                       __pintcodelo 0018  
                        _ECCP1CON 000FBA          __end_of_CANisRXwarningON 2822  
                     _COMSTATbits 000F74        SetOutputEPWM1@outputconfig 006F  
                   _remote_frame1 023E           _configurazione_iniziale 2402  
                    _message_sent 023C             CANreceiveMessage@tamp 0035  
                  ___wmul@product 007A                          _IPR2bits 000FA2  
    _delay_quartz_frequency_value 00BD                          _PIE1bits 000F9D  
                        _IPR3bits 000FA5                          _PIE2bits 000FA0  
                       _send_data 2530                          _PIE3bits 000FA3  
        __end_of_CANisTXwarningON 2816                          i1u400_25 17BE  
                        i1u406_25 1922                          i1u435_20 009E  
                        i1u436_25 00A0                          i1u437_20 00BC  
                        i1u386_20 14F8                          i1u386_26 14FA  
                        i1u387_20 1526                          i1u395_25 16AC  
                        i1u387_26 1528                          i1u397_20 1780  
                        i1u389_25 153C                          i1u397_26 1782  
                        i1u398_20 17AA                          i1u398_26 17AC  
                        _PIR1bits 000F9E                          _PIR2bits 000FA1  
                        _PIR3bits 000FA4                          _RXB0EIDH 000F63  
                        _RXB0EIDL 000F64                          _RXB1EIDH 000F53  
                        _RXB1EIDL 000F54                          _RCONbits 000FD0  
                __CFG_WDTPS$32768 000000                          _RXB0SIDH 000F61  
                        _RXB0SIDL 000F62                          _RXF0EIDH 000F02  
                        _RXB1SIDH 000F51                          _RXF0EIDL 000F03  
                        _RXB1SIDL 000F52                          _RXF1EIDH 000F06  
                        _RXF1EIDL 000F07                          _RXF2EIDH 000F0A  
                        _RXF2EIDL 000F0B                          _RXF3EIDH 000F0E  
                        _RXF3EIDL 000F0F                          _RXF4EIDH 000F12  
                        _RXF4EIDL 000F13                          _RXF5EIDH 000F16  
                        _RXF5EIDL 000F17                          _RXF0SIDH 000F00  
                        _RXF0SIDL 000F01                          _TXB0EIDH 000F43  
                        _RXF1SIDH 000F04                          _TXB0EIDL 000F44  
                        _RXF1SIDL 000F05                          _TXB1EIDH 000F33  
                        _RXF2SIDH 000F08                          _TXB1EIDL 000F34  
                        _RXF2SIDL 000F09                          _ISR_alta 0008  
                        _TXB2EIDH 000F23                          _RXF3SIDH 000F0C  
                        _TXB2EIDL 000F24                          _RXF3SIDL 000F0D  
                        _RXF4SIDH 000F10                          _RXF4SIDL 000F11  
                        _RXF5SIDH 000F14                          _RXF5SIDL 000F15  
                        _RXM0EIDH 000F1A                          _RXM0EIDL 000F1B  
                        _TXB0SIDH 000F41                          _RXM1EIDH 000F1E  
                        _TXB0SIDL 000F42                          _RXM1EIDL 000F1F  
                        _TXB1SIDH 000F31                          _TXB1SIDL 000F32  
                        _TXB2SIDH 000F21                          _TXB2SIDL 000F22  
                        _RXM0SIDH 000F18                          _RXM0SIDL 000F19  
                        _RXM1SIDH 000F1C                          _RXM1SIDL 000F1D  
                        _RXERRCNT 000F75                          _TXERRCNT 000F76  
                      _ADCON0bits 000FC2                        _ADCON1bits 000FC1  
                      _ADCON2bits 000FC0                 ___wmul@multiplier 0076  
                   ?_CANSetFilter 006E                       _INTCON2bits 000FF1  
                      _CANCONbits 000F6F                       ??_OpenEPWM1 006E  
                ?_battery_measure 002A                          __Hparam0 0000  
                      ?_send_data 002A                          __Lparam0 0000  
                    _RXB0SIDLbits 000F62                  SetDCEPWM1@DCycle 0072  
                    _RXB1SIDLbits 000F52                _centralina_comando 023A  
                      _CANSetMask 1DE0                  __size_of___awdiv 00BE  
         __size_of_SetOutputEPWM1 0052                _currentSpeed_array 0091  
       ??_configurazione_iniziale 0088                      _RXF0SIDLbits 000F01  
                        _delay_ms 26EA                      _RXF1SIDLbits 000F05  
                  ??_CANSetFilter 0073                          __ptext10 2344  
                        __ptext11 0CB4                          __ptext12 2786  
                        __ptext21 1440                          __ptext13 275A  
                        __ptext22 27E2                          __ptext14 2612  
                        __ptext15 2664                          __ptext16 27AA  
                        __ptext17 27F8                          __ptext18 280A  
                        __ptext19 2816                      _RXF2SIDLbits 000F09  
                    _RXF3SIDLbits 000F0D                      _RXF4SIDLbits 000F11  
                   _speed_fetched 0240                      _RXF5SIDLbits 000F15  
        CANsendMessage@dataLength 0074                      _remote_frame 023D  
                   __size_of_main 0494                          _duty_set 00AF  
            CANreceiveMessage@msg 002A                      _TXB0SIDLbits 000F42  
                    _TXB1SIDLbits 000F32                      _TXB2SIDLbits 000F22  
                        int$flags 0049         __size_of_CANOperationMode 0016  
                   ?_CANisRxReady 002A                     ?_CANisTxReady 002A  
                     _RXB0DLCbits 000F65                       _RXB1DLCbits 000F55  
                    _RXM0SIDLbits 000F19                       _RXB0CONbits 000F60  
                     _RXB1CONbits 000F50                 _CANreceiveMessage 1440  
                    _RXM1SIDLbits 000F1D                        _INTCONbits 000FF2  
                ??_CANsendMessage 0076                      _requestSpeed 00B2  
              ?_CANreceiveMessage 002A                      _request_sent 023F  
        CANsendMessage@identifier 006E                          intlevel1 0000  
                        intlevel2 0000                 _centralina_sterzo 023B  
                CANSetFilter@tamp 0078                  CANSetFilter@type 0072  
             ??_CANreceiveMessage 002C                       _TXB0DLCbits 000F45  
                     _right_speed 00B3                       _TXB1DLCbits 000F35  
                     _TXB0CONbits 000F40                       ??_send_data 007E  
                     _TXB2DLCbits 000F25   __end_of_configurazione_iniziale 249C  
                     _TXB1CONbits 000F30                       _TXB2CONbits 000F20  
                     _timeCounter 0015              CANOperationMode@mode 006E  
                  ??_CANisRxReady 002A                       ?_CANSetMask 006E  
                  ??_CANisTxReady 006E         __end_of_CANreceiveMessage 194C  
               ?_CANisRXwarningON 002A                ??_CANisRXwarningON 006E  
                     _previousPwm 00B1             __end_of_CANInitialize 2344  
               ?_CANisTXwarningON 002A  
